###############################################################################
#                                                                             #
# IAR C/C++ Compiler V8.10.1.10194/W32 for 8051         09/Apr/2016  20:37:18 #
# Copyright 2004-2011 IAR Systems AB.                                         #
#                                                                             #
#    Core               =  plain                                              #
#    Code model         =  banked                                             #
#    Data model         =  large                                              #
#    Calling convention =  xdata reentrant                                    #
#    Constant location  =  data_rom                                           #
#    Dptr setup         =  1,16                                               #
#    Source file        =  E:\Projects\IGreen-Zigbee\zigbee\Projects\zstack\S #
#                          amples\SampleApp\Source\ds18b20.c                  #
#    Command line       =  -f E:\Projects\IGreen-Zigbee\zigbee\Projects\zstac #
#                          k\Samples\SampleApp\CC2530DB\..\..\..\Tools\CC2530 #
#                          DB\f8wRouter.cfg (-DCPU32MHZ -DROOT=__near_func    #
#                          -DMAC_CFG_APP_PENDING_QUEUE=TRUE                   #
#                          -DMAC_CFG_TX_DATA_MAX=5 -DMAC_CFG_TX_MAX=8         #
#                          -DMAC_CFG_RX_MAX=5 -DRTR_NWK) -f                   #
#                          E:\Projects\IGreen-Zigbee\zigbee\Projects\zstack\S #
#                          amples\SampleApp\CC2530DB\..\..\..\Tools\CC2530DB\ #
#                          f8wConfig.cfg (-DZIGBEEPRO -DSECURE=0              #
#                          -DZG_SECURE_DYNAMIC=0 -DREFLECTOR                  #
#                          -DDEFAULT_CHANLIST=0x00000800                      #
#                          -DZDAPP_CONFIG_PAN_ID=0xFF00                       #
#                          -DNWK_START_DELAY=100 -DEXTENDED_JOINING_RANDOM_MA #
#                          SK=0x007F -DBEACON_REQUEST_DELAY=100               #
#                          -DBEACON_REQ_DELAY_MASK=0x00FF                     #
#                          -DLINK_STATUS_JITTER_MASK=0x007F                   #
#                          -DROUTE_EXPIRY_TIME=30 -DAPSC_ACK_WAIT_DURATION_PO #
#                          LLED=3000 -DNWK_INDIRECT_MSG_TIMEOUT=7             #
#                          -DMAX_RREQ_ENTRIES=8 -DAPSC_MAX_FRAME_RETRIES=3    #
#                          -DNWK_MAX_DATA_RETRIES=2                           #
#                          -DMAX_POLL_FAILURE_RETRIES=2 -DMAX_BCAST=9         #
#                          -DAPS_MAX_GROUPS=16 -DMAX_RTG_ENTRIES=40           #
#                          -DNWK_MAX_BINDING_ENTRIES=4                        #
#                          -DMAX_BINDING_CLUSTER_IDS=4 "-DDEFAULT_KEY={0x01,  #
#                          0x03, 0x05, 0x07, 0x09, 0x0B, 0x0D, 0x0F, 0x00,    #
#                          0x02, 0x04, 0x06, 0x08, 0x0A, 0x0C, 0x0D}"         #
#                          -DMAC_MAX_FRAME_SIZE=116                           #
#                          -DZDNWKMGR_MIN_TRANSMISSIONS=20 "-DCONST=const     #
#                          __code" -DGENERIC=__generic                        #
#                          -DRFD_RCVC_ALWAYS_ON=FALSE -DPOLL_RATE=1000        #
#                          -DQUEUED_POLL_RATE=100 -DRESPONSE_POLL_RATE=100)   #
#                          -DREJOIN_POLL_RATE=440 E:\Projects\IGreen-Zigbee\z #
#                          igbee\Projects\zstack\Samples\SampleApp\Source\ds1 #
#                          8b20.c -D ZTOOL_P1 -D MT_TASK -D MT_SYS_FUNC -D    #
#                          MT_ZDO_FUNC -D LCD_SUPPORTED=DEBUG -lC             #
#                          E:\Projects\IGreen-Zigbee\zigbee\Projects\zstack\S #
#                          amples\SampleApp\CC2530DB\RouterEB\List\ -lA       #
#                          E:\Projects\IGreen-Zigbee\zigbee\Projects\zstack\S #
#                          amples\SampleApp\CC2530DB\RouterEB\List\           #
#                          --diag_suppress Pe001,Pa010 -o                     #
#                          E:\Projects\IGreen-Zigbee\zigbee\Projects\zstack\S #
#                          amples\SampleApp\CC2530DB\RouterEB\Obj\ -e         #
#                          --no_code_motion --debug --core=plain --dptr=16,1  #
#                          --data_model=large --code_model=banked             #
#                          --calling_convention=xdata_reentrant               #
#                          --place_constants=data_rom --nr_virtual_regs 16    #
#                          -I E:\Projects\IGreen-Zigbee\zigbee\Projects\zstac #
#                          k\Samples\SampleApp\CC2530DB\ -I                   #
#                          E:\Projects\IGreen-Zigbee\zigbee\Projects\zstack\S #
#                          amples\SampleApp\CC2530DB\..\Source\ -I            #
#                          E:\Projects\IGreen-Zigbee\zigbee\Projects\zstack\S #
#                          amples\SampleApp\CC2530DB\..\..\..\ZMain\TI2530DB\ #
#                           -I E:\Projects\IGreen-Zigbee\zigbee\Projects\zsta #
#                          ck\Samples\SampleApp\CC2530DB\..\..\..\..\..\Compo #
#                          nents\hal\include\ -I E:\Projects\IGreen-Zigbee\zi #
#                          gbee\Projects\zstack\Samples\SampleApp\CC2530DB\.. #
#                          \..\..\..\..\Components\hal\target\CC2530EB\ -I    #
#                          E:\Projects\IGreen-Zigbee\zigbee\Projects\zstack\S #
#                          amples\SampleApp\CC2530DB\..\..\..\..\..\Component #
#                          s\mac\include\ -I E:\Projects\IGreen-Zigbee\zigbee #
#                          \Projects\zstack\Samples\SampleApp\CC2530DB\..\..\ #
#                          ..\..\..\Components\mac\high_level\ -I             #
#                          E:\Projects\IGreen-Zigbee\zigbee\Projects\zstack\S #
#                          amples\SampleApp\CC2530DB\..\..\..\..\..\Component #
#                          s\mac\low_level\srf04\ -I                          #
#                          E:\Projects\IGreen-Zigbee\zigbee\Projects\zstack\S #
#                          amples\SampleApp\CC2530DB\..\..\..\..\..\Component #
#                          s\mac\low_level\srf04\single_chip\ -I              #
#                          E:\Projects\IGreen-Zigbee\zigbee\Projects\zstack\S #
#                          amples\SampleApp\CC2530DB\..\..\..\..\..\Component #
#                          s\mt\ -I E:\Projects\IGreen-Zigbee\zigbee\Projects #
#                          \zstack\Samples\SampleApp\CC2530DB\..\..\..\..\..\ #
#                          Components\osal\include\ -I                        #
#                          E:\Projects\IGreen-Zigbee\zigbee\Projects\zstack\S #
#                          amples\SampleApp\CC2530DB\..\..\..\..\..\Component #
#                          s\services\saddr\ -I E:\Projects\IGreen-Zigbee\zig #
#                          bee\Projects\zstack\Samples\SampleApp\CC2530DB\..\ #
#                          ..\..\..\..\Components\services\sdata\ -I          #
#                          E:\Projects\IGreen-Zigbee\zigbee\Projects\zstack\S #
#                          amples\SampleApp\CC2530DB\..\..\..\..\..\Component #
#                          s\stack\af\ -I E:\Projects\IGreen-Zigbee\zigbee\Pr #
#                          ojects\zstack\Samples\SampleApp\CC2530DB\..\..\..\ #
#                          ..\..\Components\stack\nwk\ -I                     #
#                          E:\Projects\IGreen-Zigbee\zigbee\Projects\zstack\S #
#                          amples\SampleApp\CC2530DB\..\..\..\..\..\Component #
#                          s\stack\sapi\ -I E:\Projects\IGreen-Zigbee\zigbee\ #
#                          Projects\zstack\Samples\SampleApp\CC2530DB\..\..\. #
#                          .\..\..\Components\stack\sec\ -I                   #
#                          E:\Projects\IGreen-Zigbee\zigbee\Projects\zstack\S #
#                          amples\SampleApp\CC2530DB\..\..\..\..\..\Component #
#                          s\stack\sys\ -I E:\Projects\IGreen-Zigbee\zigbee\P #
#                          rojects\zstack\Samples\SampleApp\CC2530DB\..\..\.. #
#                          \..\..\Components\stack\zdo\ -I                    #
#                          E:\Projects\IGreen-Zigbee\zigbee\Projects\zstack\S #
#                          amples\SampleApp\CC2530DB\..\..\..\..\..\Component #
#                          s\zmac\ -I E:\Projects\IGreen-Zigbee\zigbee\Projec #
#                          ts\zstack\Samples\SampleApp\CC2530DB\..\..\..\..\. #
#                          .\Components\zmac\f8w\ -Ohz --require_prototypes   #
#    List file          =  E:\Projects\IGreen-Zigbee\zigbee\Projects\zstack\S #
#                          amples\SampleApp\CC2530DB\RouterEB\List\ds18b20.ls #
#                          t                                                  #
#    Object file        =  E:\Projects\IGreen-Zigbee\zigbee\Projects\zstack\S #
#                          amples\SampleApp\CC2530DB\RouterEB\Obj\ds18b20.r51 #
#                                                                             #
#                                                                             #
###############################################################################

E:\Projects\IGreen-Zigbee\zigbee\Projects\zstack\Samples\SampleApp\Source\ds18b20.c
      1          #include"OnBoard.h"

   \                                 In  segment SFR_AN, at 0x80
   \   union <unnamed> volatile __sfr _A_P0
   \                     _A_P0:
   \   000000                DS 1

   \                                 In  segment SFR_AN, at 0xfd
   \   unsigned char volatile __sfr P0DIR
   \                     P0DIR:
   \   000000                DS 1
      2          #include"iocc2530.h"
      3          
      4          #define uint unsigned int 
      5          #define uchar unsigned char
      6          
      7          #define Ds18b20Data P0_6 //温度传感器引脚
      8          
      9          #define ON 0x01  //读取成功返回0x00，失败返回0x01
     10          #define OFF 0x00
     11          

   \                                 In  segment XDATA_Z, align 1, keep-with-next
     12          unsigned char temp,test1,test2; //储存温度信息
   \                     temp:
   \   000000                DS 1
   \   000001                REQUIRE __INIT_XDATA_Z

   \                                 In  segment XDATA_Z, align 1, keep-with-next
   \                     test1:
   \   000000                DS 1
   \   000001                REQUIRE __INIT_XDATA_Z

   \                                 In  segment XDATA_Z, align 1, keep-with-next
   \                     test2:
   \   000000                DS 1
   \   000001                REQUIRE __INIT_XDATA_Z
     13          
     14          void Ds18b20Delay(uint k);
     15          void Ds18b20InputInitial(void);  //设置端口为输入
     16          void Ds18b20OutputInitial(void);  //设置端口为输出
     17          uchar Ds18b20Initial(void);
     18          void Ds18b20Write(uchar infor);
     19          uchar Ds18b20Read(void);
     20          void Temp_test(void);  //温度读取函数
     21          
     22          //时钟频率为32M

   \                                 In  segment BANKED_CODE, align 1, keep-with-next
     23          void Ds18b20Delay(uint k)
   \                     Ds18b20Delay:
     24          {
   \   000000   C082         PUSH    DPL
   \   000002   C083         PUSH    DPH
   \   000004                ; Saved register size: 2
   \   000004                ; Auto size: 0
     25            
     26           // uint i,j;
     27           // for(i=0;i<k;i++)
     28           // for(j=0;j<2;j++);
     29              MicroWait(k);
   \   000004                ; Setup parameters for call to function Onboard_wait
   \   000004   12....       LCALL   ??Onboard_wait?relay
     30          }
   \   000007   D083         POP     DPH
   \   000009   D082         POP     DPL
   \   00000B   02....       LJMP    ?BRET
     31          

   \                                 In  segment BANKED_CODE, align 1, keep-with-next
     32          void Ds18b20InputInitial(void)//设置端口为输入
   \                     Ds18b20InputInitial:
     33          {
   \   000000                ; Saved register size: 0
   \   000000                ; Auto size: 0
     34            P0DIR &= 0xbf;
   \   000000   53FDBF       ANL     0xfd,#0xbf
     35          }
   \   000003   02....       LJMP    ?BRET
   \   000006                REQUIRE P0DIR
     36          

   \                                 In  segment BANKED_CODE, align 1, keep-with-next
     37          void Ds18b20OutputInitial(void)//设置端口为输出
   \                     Ds18b20OutputInitial:
     38          {
   \   000000                ; Saved register size: 0
   \   000000                ; Auto size: 0
     39             P0DIR |= 0x40;
   \   000000   43FD40       ORL     0xfd,#0x40
     40          }
   \   000003   02....       LJMP    ?BRET
   \   000006                REQUIRE P0DIR
     41          
     42          //ds18b20初始化
     43          //初始化成功返回0x00，失败返回0x01

   \                                 In  segment BANKED_CODE, align 1, keep-with-next
     44          uchar Ds18b20Initial(void)
   \                     Ds18b20Initial:
     45          {
   \   000000   74F6         MOV     A,#-0xa
   \   000002   12....       LCALL   ?BANKED_ENTER_XDATA
   \   000005                ; Saved register size: 10
   \   000005                ; Auto size: 0
     46            uchar Status = 0x00;
   \   000005   75..00       MOV     ?V0 + 0,#0x0
     47            uint CONT_1 = 0;
   \   000008   7E00         MOV     R6,#0x0
   \   00000A   7F00         MOV     R7,#0x0
     48            uchar Flag_1 = ON;
   \   00000C   75..01       MOV     ?V0 + 1,#0x1
     49            Ds18b20OutputInitial();
   \   00000F   43FD40       ORL     0xfd,#0x40
     50            Ds18b20Data = 1;
   \   000012   D286         SETB    0x80.6
     51            Ds18b20Delay(260);
   \   000014                ; Setup parameters for call to function Onboard_wait
   \   000014   7A04         MOV     R2,#0x4
   \   000016   7B01         MOV     R3,#0x1
   \   000018   12....       LCALL   ??Onboard_wait?relay
     52            Ds18b20Data = 0;
   \   00001B   C286         CLR     0x80.6
     53            Ds18b20Delay(750);
   \   00001D                ; Setup parameters for call to function Onboard_wait
   \   00001D   7AEE         MOV     R2,#-0x12
   \   00001F   7B02         MOV     R3,#0x2
   \   000021   12....       LCALL   ??Subroutine3_0 & 0xFFFF
     54            Ds18b20Data = 1;
     55            Ds18b20InputInitial();
   \                     ??CrossCallReturnLabel_5:
   \   000024   53FDBF       ANL     0xfd,#0xbf
   \   000027   8021         SJMP    ??Ds18b20Initial_0
     56            while((Ds18b20Data != 0)&&(Flag_1 == ON))//等待ds18b20响应，具有防止超时功能
     57            {                                        //等待约60ms左右
     58              CONT_1++;
   \                     ??Ds18b20Initial_1:
   \   000029   EE           MOV     A,R6
   \   00002A   2401         ADD     A,#0x1
   \   00002C   0E           INC     R6
   \   00002D   EF           MOV     A,R7
   \   00002E   3400         ADDC    A,#0x0
   \   000030   FF           MOV     R7,A
     59              Ds18b20Delay(10);
   \   000031                ; Setup parameters for call to function Onboard_wait
   \   000031   7A0A         MOV     R2,#0xa
   \   000033   7B00         MOV     R3,#0x0
   \   000035   12....       LCALL   ??Onboard_wait?relay
     60              if(CONT_1 > 8000)Flag_1 = OFF;
   \   000038   C3           CLR     C
   \   000039   EE           MOV     A,R6
   \   00003A   9441         SUBB    A,#0x41
   \   00003C   EF           MOV     A,R7
   \   00003D   941F         SUBB    A,#0x1f
   \   00003F   4003         JC      ??Ds18b20Initial_2
   \   000041   75..00       MOV     ?V0 + 1,#0x0
     61              Status = Ds18b20Data;
   \                     ??Ds18b20Initial_2:
   \   000044   A286         MOV     C,0x80.6
   \   000046   E4           CLR     A
   \   000047   33           RLC     A
   \   000048   F5..         MOV     ?V0 + 0,A
     62            }
   \                     ??Ds18b20Initial_0:
   \   00004A   A286         MOV     C,0x80.6
   \   00004C   5006         JNC     ??Ds18b20Initial_3
   \   00004E   E5..         MOV     A,?V0 + 1
   \   000050   A2E0         MOV     C,0xE0 /* A   */.0
   \   000052   40D5         JC      ??Ds18b20Initial_1
     63            Ds18b20OutputInitial();
   \                     ??Ds18b20Initial_3:
   \   000054   43FD40       ORL     0xfd,#0x40
     64            Ds18b20Data = 1;
   \   000057   D286         SETB    0x80.6
     65            Ds18b20Delay(100);
   \   000059                ; Setup parameters for call to function Onboard_wait
   \   000059   7A64         MOV     R2,#0x64
   \   00005B   7B00         MOV     R3,#0x0
   \   00005D   12....       LCALL   ??Onboard_wait?relay
     66            return Status;
   \   000060   A9..         MOV     R1,?V0 + 0
   \   000062   7F02         MOV     R7,#0x2
   \   000064   02....       LJMP    ?BANKED_LEAVE_XDATA
   \   000067                REQUIRE _A_P0
   \   000067                REQUIRE P0DIR
     67          }

   \                                 In  segment BANKED_CODE, align 1, keep-with-next
   \                     ??Subroutine3_0:
   \   000000   12....       LCALL   ??Onboard_wait?relay
   \   000003   D286         SETB    0x80.6
   \   000005   22           RET
     68          
     69          

   \                                 In  segment BANKED_CODE, align 1, keep-with-next
     70          void Ds18b20Write(uchar infor)
   \                     Ds18b20Write:
     71          {
   \   000000   74F7         MOV     A,#-0x9
   \   000002   12....       LCALL   ?BANKED_ENTER_XDATA
   \   000005                ; Saved register size: 9
   \   000005                ; Auto size: 0
   \   000005   E9           MOV     A,R1
   \   000006   FF           MOV     R7,A
     72            uint i;
     73            Ds18b20OutputInitial();
   \   000007   43FD40       ORL     0xfd,#0x40
     74            for(i=0;i<8;i++)
   \   00000A   7E08         MOV     R6,#0x8
     75            {
     76            if((infor & 0x01))
   \                     ??Ds18b20Write_0:
   \   00000C   EF           MOV     A,R7
   \   00000D   A2E0         MOV     C,0xE0 /* A   */.0
   \   00000F   C286         CLR     0x80.6
   \   000011   5009         JNC     ??Ds18b20Write_1
     77            {
     78            Ds18b20Data = 0;
     79            Ds18b20Delay(6);
   \   000013                ; Setup parameters for call to function Onboard_wait
   \   000013   7A06         MOV     R2,#0x6
   \   000015   12....       LCALL   ?Subroutine1 & 0xFFFF
     80            Ds18b20Data = 1;
     81            Ds18b20Delay(50);
   \                     ??CrossCallReturnLabel_2:
   \   000018                ; Setup parameters for call to function Onboard_wait
   \   000018   7A32         MOV     R2,#0x32
   \   00001A   8007         SJMP    ??Ds18b20Write_2
     82            }
     83            else
     84            {
     85            Ds18b20Data = 0;
     86            Ds18b20Delay(50);
   \                     ??Ds18b20Write_1:
   \   00001C                ; Setup parameters for call to function Onboard_wait
   \   00001C   7A32         MOV     R2,#0x32
   \   00001E   12....       LCALL   ?Subroutine1 & 0xFFFF
     87            Ds18b20Data = 1;
     88            Ds18b20Delay(6);
   \                     ??CrossCallReturnLabel_3:
   \   000021                ; Setup parameters for call to function Onboard_wait
   \   000021   7A06         MOV     R2,#0x6
   \                     ??Ds18b20Write_2:
   \   000023   7B00         MOV     R3,#0x0
   \   000025   12....       LCALL   ??Onboard_wait?relay
     89            }
     90            infor >>= 1;
   \   000028   EF           MOV     A,R7
   \   000029   C3           CLR     C
   \   00002A   13           RRC     A
   \   00002B   FF           MOV     R7,A
     91            }
   \   00002C   1E           DEC     R6
   \   00002D   EE           MOV     A,R6
   \   00002E   70DC         JNZ     ??Ds18b20Write_0
     92          }
   \   000030                REQUIRE ?Subroutine0
   \   000030                REQUIRE _A_P0
   \   000030                REQUIRE P0DIR
   \   000030                ; // Fall through to label ?Subroutine0

   \                                 In  segment BANKED_CODE, align 1, keep-with-next
   \                     ?Subroutine0:
   \   000000   7F01         MOV     R7,#0x1
   \   000002   02....       LJMP    ?BANKED_LEAVE_XDATA
     93          

   \                                 In  segment BANKED_CODE, align 1, keep-with-next
     94          uchar Ds18b20Read(void)
   \                     Ds18b20Read:
     95          {
   \   000000   74F7         MOV     A,#-0x9
   \   000002   12....       LCALL   ?BANKED_ENTER_XDATA
   \   000005                ; Saved register size: 9
   \   000005                ; Auto size: 0
     96            uchar Value = 0x00;
   \   000005   7E00         MOV     R6,#0x0
     97            uint i;
     98            Ds18b20OutputInitial();
   \   000007   43FD40       ORL     0xfd,#0x40
     99            Ds18b20Data = 1;
   \   00000A   D286         SETB    0x80.6
    100            Ds18b20Delay(10);
   \   00000C                ; Setup parameters for call to function Onboard_wait
   \   00000C   7A0A         MOV     R2,#0xa
   \   00000E   7B00         MOV     R3,#0x0
   \   000010   12....       LCALL   ??Onboard_wait?relay
    101            for(i=0;i<8;i++)
   \   000013   7F08         MOV     R7,#0x8
    102            {
    103            Value >>= 1; 
   \                     ??Ds18b20Read_0:
   \   000015   EE           MOV     A,R6
   \   000016   C3           CLR     C
   \   000017   13           RRC     A
   \   000018   FE           MOV     R6,A
    104            Ds18b20OutputInitial();
   \   000019   43FD40       ORL     0xfd,#0x40
    105            Ds18b20Data = 0;
   \   00001C   C286         CLR     0x80.6
    106            Ds18b20Delay(3);
   \   00001E                ; Setup parameters for call to function Onboard_wait
   \   00001E   7A03         MOV     R2,#0x3
   \   000020   12....       LCALL   ?Subroutine1 & 0xFFFF
    107            Ds18b20Data = 1;
    108            Ds18b20Delay(3);
   \                     ??CrossCallReturnLabel_4:
   \   000023                ; Setup parameters for call to function Onboard_wait
   \   000023   7A03         MOV     R2,#0x3
   \   000025   7B00         MOV     R3,#0x0
   \   000027   12....       LCALL   ??Onboard_wait?relay
    109            Ds18b20InputInitial();
   \   00002A   53FDBF       ANL     0xfd,#0xbf
    110            if(Ds18b20Data == 1) Value |= 0x80;
   \   00002D   A286         MOV     C,0x80.6
   \   00002F   5004         JNC     ??Ds18b20Read_1
   \   000031   EE           MOV     A,R6
   \   000032   D2E7         SETB    0xE0 /* A   */.7
   \   000034   FE           MOV     R6,A
    111            Ds18b20Delay(15);
   \                     ??Ds18b20Read_1:
   \   000035                ; Setup parameters for call to function Onboard_wait
   \   000035   7A0F         MOV     R2,#0xf
   \   000037   7B00         MOV     R3,#0x0
   \   000039   12....       LCALL   ??Onboard_wait?relay
    112            } 
   \   00003C   1F           DEC     R7
   \   00003D   EF           MOV     A,R7
   \   00003E   70D5         JNZ     ??Ds18b20Read_0
    113            return Value;
   \   000040   EE           MOV     A,R6
   \   000041   F9           MOV     R1,A
   \   000042   80..         SJMP    ?Subroutine0
   \   000044                REQUIRE _A_P0
   \   000044                REQUIRE P0DIR
    114          }
    115          
    116          

   \                                 In  segment BANKED_CODE, align 1, keep-with-next
    117          void Temp_test(void) //温度读取函数
   \                     Temp_test:
    118          {
   \   000000   74F7         MOV     A,#-0x9
   \   000002   12....       LCALL   ?BANKED_ENTER_XDATA
   \   000005                ; Saved register size: 9
   \   000005                ; Auto size: 0
    119            uchar V1,V2;
    120           
    121            Ds18b20Initial();
   \   000005                ; Setup parameters for call to function Ds18b20Initial
   \   000005   12....       LCALL   ?Subroutine2 & 0xFFFF
    122            Ds18b20Write(0xcc);
    123            Ds18b20Write(0x44);
   \                     ??CrossCallReturnLabel_0:
   \   000008                ; Setup parameters for call to function Ds18b20Write
   \   000008   7944         MOV     R1,#0x44
   \   00000A   12....       LCALL   ??Ds18b20Write?relay
    124            
    125            Ds18b20Initial();
   \   00000D                ; Setup parameters for call to function Ds18b20Initial
   \   00000D   12....       LCALL   ?Subroutine2 & 0xFFFF
    126            Ds18b20Write(0xcc);
    127            Ds18b20Write(0xbe);
   \                     ??CrossCallReturnLabel_1:
   \   000010                ; Setup parameters for call to function Ds18b20Write
   \   000010   79BE         MOV     R1,#-0x42
   \   000012   12....       LCALL   ??Ds18b20Write?relay
    128            
    129            V1 = Ds18b20Read();
   \   000015                ; Setup parameters for call to function Ds18b20Read
   \   000015   12....       LCALL   ??Ds18b20Read?relay
   \   000018   E9           MOV     A,R1
   \   000019   FE           MOV     R6,A
    130            V2 = Ds18b20Read();
    131            temp = ((V1 >> 4)+((V2 & 0x07)*16));  
   \   00001A                ; Setup parameters for call to function Ds18b20Read
   \   00001A   12....       LCALL   ??Ds18b20Read?relay
   \   00001D   E9           MOV     A,R1
   \   00001E   5407         ANL     A,#0x7
   \   000020   C4           SWAP    A
   \   000021   F8           MOV     R0,A
   \   000022   EE           MOV     A,R6
   \   000023   C4           SWAP    A
   \   000024   540F         ANL     A,#0xf
   \   000026   28           ADD     A,R0
   \   000027   90....       MOV     DPTR,#temp
   \   00002A   F0           MOVX    @DPTR,A
    132          
    133          }
   \   00002B   80..         SJMP    ?Subroutine0

   \                                 In  segment BANKED_CODE, align 1, keep-with-next
   \                     ?Subroutine2:
   \   000000   12....       LCALL   ??Ds18b20Initial?relay
   \   000003                ; Setup parameters for call to function Ds18b20Write
   \   000003                ; Setup parameters for call to function Ds18b20Write
   \   000003   79CC         MOV     R1,#-0x34
   \   000005   12....       LCALL   ??Ds18b20Write?relay
   \   000008   22           RET

   \                                 In  segment BANKED_CODE, align 1, keep-with-next
   \                     ?Subroutine1:
   \   000000   7B00         MOV     R3,#0x0
   \   000002                REQUIRE ??Subroutine3_0
   \   000002                ; // Fall through to label ??Subroutine3_0

   \                                 In  segment BANK_RELAYS, align 1
   \                     ??Ds18b20Delay?relay:
   \   000000   12....       LCALL   ?BDISPATCH
   \   000003   ......       DC24    Ds18b20Delay

   \                                 In  segment BANK_RELAYS, align 1
   \                     ??Ds18b20InputInitial?relay:
   \   000000   12....       LCALL   ?BDISPATCH
   \   000003   ......       DC24    Ds18b20InputInitial

   \                                 In  segment BANK_RELAYS, align 1
   \                     ??Ds18b20OutputInitial?relay:
   \   000000   12....       LCALL   ?BDISPATCH
   \   000003   ......       DC24    Ds18b20OutputInitial

   \                                 In  segment BANK_RELAYS, align 1
   \                     ??Ds18b20Initial?relay:
   \   000000   12....       LCALL   ?BDISPATCH
   \   000003   ......       DC24    Ds18b20Initial

   \                                 In  segment BANK_RELAYS, align 1
   \                     ??Ds18b20Write?relay:
   \   000000   12....       LCALL   ?BDISPATCH
   \   000003   ......       DC24    Ds18b20Write

   \                                 In  segment BANK_RELAYS, align 1
   \                     ??Ds18b20Read?relay:
   \   000000   12....       LCALL   ?BDISPATCH
   \   000003   ......       DC24    Ds18b20Read

   \                                 In  segment BANK_RELAYS, align 1
   \                     ??Temp_test?relay:
   \   000000   12....       LCALL   ?BDISPATCH
   \   000003   ......       DC24    Temp_test

   Maximum stack usage in bytes:

     Function             ISTACK PSTACK XSTACK
     --------             ------ ------ ------
     Ds18b20Delay             2      0      0
       -> Onboard_wait        4      0      0
     Ds18b20Initial           0      0     19
       -> Onboard_wait        0      0     20
       -> Onboard_wait        0      0     20
       -> Onboard_wait        0      0     20
       -> Onboard_wait        0      0     20
     Ds18b20InputInitial      0      0      0
     Ds18b20OutputInitial     0      0      0
     Ds18b20Read              0      0     18
       -> Onboard_wait        0      0     18
       -> Onboard_wait        0      0     18
       -> Onboard_wait        0      0     18
       -> Onboard_wait        0      0     18
     Ds18b20Write             0      0     18
       -> Onboard_wait        0      0     18
       -> Onboard_wait        0      0     18
       -> Onboard_wait        0      0     18
       -> Onboard_wait        0      0     18
     Temp_test                0      0      9
       -> Ds18b20Initial      0      0     18
       -> Ds18b20Write        0      0     18
       -> Ds18b20Write        0      0     18
       -> Ds18b20Initial      0      0     18
       -> Ds18b20Write        0      0     18
       -> Ds18b20Write        0      0     18
       -> Ds18b20Read         0      0     18
       -> Ds18b20Read         0      0     18


   Segment part sizes:

     Function/Label               Bytes
     --------------               -----
     _A_P0                           1
     P0DIR                           1
     temp                            1
     test1                           1
     test2                           1
     Ds18b20Delay                   14
     Ds18b20InputInitial             6
     Ds18b20OutputInitial            6
     Ds18b20Initial                103
     ??Subroutine3_0                 6
     Ds18b20Write                   48
     ?Subroutine0                    5
     Ds18b20Read                    68
     Temp_test                      45
     ?Subroutine2                    9
     ?Subroutine1                    2
     ??Ds18b20Delay?relay            6
     ??Ds18b20InputInitial?relay     6
     ??Ds18b20OutputInitial?relay    6
     ??Ds18b20Initial?relay          6
     ??Ds18b20Write?relay            6
     ??Ds18b20Read?relay             6
     ??Temp_test?relay               6

 
 312 bytes in segment BANKED_CODE
  42 bytes in segment BANK_RELAYS
   2 bytes in segment SFR_AN
   3 bytes in segment XDATA_Z
 
 354 bytes of CODE  memory
   0 bytes of DATA  memory (+ 2 bytes shared)
   3 bytes of XDATA memory

Errors: none
Warnings: none
