///////////////////////////////////////////////////////////////////////////////
//                                                                            /
// IAR C/C++ Compiler V8.10.1.10194/W32 for 8051        09/Apr/2016  20:47:30 /
// Copyright 2004-2011 IAR Systems AB.                                        /
//                                                                            /
//    Core               =  plain                                             /
//    Code model         =  banked                                            /
//    Data model         =  large                                             /
//    Calling convention =  xdata reentrant                                   /
//    Constant location  =  data_rom                                          /
//    Dptr setup         =  1,16                                              /
//    Source file        =  E:\Projects\IGreen-Zigbee\zigbee\Projects\zstack\ /
//                          Samples\SampleApp\Source\SampleApp.c              /
//    Command line       =  -f E:\Projects\IGreen-Zigbee\zigbee\Projects\zsta /
//                          ck\Samples\SampleApp\CC2530DB\..\..\..\Tools\CC25 /
//                          30DB\f8wEndev.cfg (-DCPU32MHZ -DROOT=__near_func  /
//                          -DMAC_CFG_TX_DATA_MAX=3 -DMAC_CFG_TX_MAX=6        /
//                          -DMAC_CFG_RX_MAX=3) -f E:\Projects\IGreen-Zigbee\ /
//                          zigbee\Projects\zstack\Samples\SampleApp\CC2530DB /
//                          \..\..\..\Tools\CC2530DB\f8wConfig.cfg            /
//                          (-DZIGBEEPRO -DSECURE=0 -DZG_SECURE_DYNAMIC=0     /
//                          -DREFLECTOR -DDEFAULT_CHANLIST=0x00000800         /
//                          -DZDAPP_CONFIG_PAN_ID=0xFF00                      /
//                          -DNWK_START_DELAY=100 -DEXTENDED_JOINING_RANDOM_M /
//                          ASK=0x007F -DBEACON_REQUEST_DELAY=100             /
//                          -DBEACON_REQ_DELAY_MASK=0x00FF                    /
//                          -DLINK_STATUS_JITTER_MASK=0x007F                  /
//                          -DROUTE_EXPIRY_TIME=30 -DAPSC_ACK_WAIT_DURATION_P /
//                          OLLED=3000 -DNWK_INDIRECT_MSG_TIMEOUT=7           /
//                          -DMAX_RREQ_ENTRIES=8 -DAPSC_MAX_FRAME_RETRIES=3   /
//                          -DNWK_MAX_DATA_RETRIES=2                          /
//                          -DMAX_POLL_FAILURE_RETRIES=2 -DMAX_BCAST=9        /
//                          -DAPS_MAX_GROUPS=16 -DMAX_RTG_ENTRIES=40          /
//                          -DNWK_MAX_BINDING_ENTRIES=4                       /
//                          -DMAX_BINDING_CLUSTER_IDS=4                       /
//                          "-DDEFAULT_KEY={0x01, 0x03, 0x05, 0x07, 0x09,     /
//                          0x0B, 0x0D, 0x0F, 0x00, 0x02, 0x04, 0x06, 0x08,   /
//                          0x0A, 0x0C, 0x0D}" -DMAC_MAX_FRAME_SIZE=116       /
//                          -DZDNWKMGR_MIN_TRANSMISSIONS=20 "-DCONST=const    /
//                          __code" -DGENERIC=__generic                       /
//                          -DRFD_RCVC_ALWAYS_ON=FALSE -DPOLL_RATE=1000       /
//                          -DQUEUED_POLL_RATE=100 -DRESPONSE_POLL_RATE=100)  /
//                          -DREJOIN_POLL_RATE=440 E:\Projects\IGreen-Zigbee\ /
//                          zigbee\Projects\zstack\Samples\SampleApp\Source\S /
//                          ampleApp.c -D NWK_AUTO_POLL -D ZTOOL_P1 -D        /
//                          MT_TASK -D MT_SYS_FUNC -D MT_ZDO_FUNC -D          /
//                          LCD_SUPPORTED=DEBUG -lC                           /
//                          E:\Projects\IGreen-Zigbee\zigbee\Projects\zstack\ /
//                          Samples\SampleApp\CC2530DB\EndDeviceEB\List\ -lA  /
//                          E:\Projects\IGreen-Zigbee\zigbee\Projects\zstack\ /
//                          Samples\SampleApp\CC2530DB\EndDeviceEB\List\      /
//                          --diag_suppress Pe001,Pa010 -o                    /
//                          E:\Projects\IGreen-Zigbee\zigbee\Projects\zstack\ /
//                          Samples\SampleApp\CC2530DB\EndDeviceEB\Obj\ -e    /
//                          --no_code_motion --debug --core=plain             /
//                          --dptr=16,1 --data_model=large                    /
//                          --code_model=banked --calling_convention=xdata_re /
//                          entrant --place_constants=data_rom                /
//                          --nr_virtual_regs 16 -I                           /
//                          E:\Projects\IGreen-Zigbee\zigbee\Projects\zstack\ /
//                          Samples\SampleApp\CC2530DB\ -I                    /
//                          E:\Projects\IGreen-Zigbee\zigbee\Projects\zstack\ /
//                          Samples\SampleApp\CC2530DB\..\Source\ -I          /
//                          E:\Projects\IGreen-Zigbee\zigbee\Projects\zstack\ /
//                          Samples\SampleApp\CC2530DB\..\..\..\ZMain\TI2530D /
//                          B\ -I E:\Projects\IGreen-Zigbee\zigbee\Projects\z /
//                          stack\Samples\SampleApp\CC2530DB\..\..\..\..\..\C /
//                          omponents\hal\include\ -I                         /
//                          E:\Projects\IGreen-Zigbee\zigbee\Projects\zstack\ /
//                          Samples\SampleApp\CC2530DB\..\..\..\..\..\Compone /
//                          nts\hal\target\CC2530EB\ -I                       /
//                          E:\Projects\IGreen-Zigbee\zigbee\Projects\zstack\ /
//                          Samples\SampleApp\CC2530DB\..\..\..\..\..\Compone /
//                          nts\mac\include\ -I E:\Projects\IGreen-Zigbee\zig /
//                          bee\Projects\zstack\Samples\SampleApp\CC2530DB\.. /
//                          \..\..\..\..\Components\mac\high_level\ -I        /
//                          E:\Projects\IGreen-Zigbee\zigbee\Projects\zstack\ /
//                          Samples\SampleApp\CC2530DB\..\..\..\..\..\Compone /
//                          nts\mac\low_level\srf04\ -I                       /
//                          E:\Projects\IGreen-Zigbee\zigbee\Projects\zstack\ /
//                          Samples\SampleApp\CC2530DB\..\..\..\..\..\Compone /
//                          nts\mac\low_level\srf04\single_chip\ -I           /
//                          E:\Projects\IGreen-Zigbee\zigbee\Projects\zstack\ /
//                          Samples\SampleApp\CC2530DB\..\..\..\..\..\Compone /
//                          nts\mt\ -I E:\Projects\IGreen-Zigbee\zigbee\Proje /
//                          cts\zstack\Samples\SampleApp\CC2530DB\..\..\..\.. /
//                          \..\Components\osal\include\ -I                   /
//                          E:\Projects\IGreen-Zigbee\zigbee\Projects\zstack\ /
//                          Samples\SampleApp\CC2530DB\..\..\..\..\..\Compone /
//                          nts\services\saddr\ -I E:\Projects\IGreen-Zigbee\ /
//                          zigbee\Projects\zstack\Samples\SampleApp\CC2530DB /
//                          \..\..\..\..\..\Components\services\sdata\ -I     /
//                          E:\Projects\IGreen-Zigbee\zigbee\Projects\zstack\ /
//                          Samples\SampleApp\CC2530DB\..\..\..\..\..\Compone /
//                          nts\stack\af\ -I E:\Projects\IGreen-Zigbee\zigbee /
//                          \Projects\zstack\Samples\SampleApp\CC2530DB\..\.. /
//                          \..\..\..\Components\stack\nwk\ -I                /
//                          E:\Projects\IGreen-Zigbee\zigbee\Projects\zstack\ /
//                          Samples\SampleApp\CC2530DB\..\..\..\..\..\Compone /
//                          nts\stack\sapi\ -I E:\Projects\IGreen-Zigbee\zigb /
//                          ee\Projects\zstack\Samples\SampleApp\CC2530DB\..\ /
//                          ..\..\..\..\Components\stack\sec\ -I              /
//                          E:\Projects\IGreen-Zigbee\zigbee\Projects\zstack\ /
//                          Samples\SampleApp\CC2530DB\..\..\..\..\..\Compone /
//                          nts\stack\sys\ -I E:\Projects\IGreen-Zigbee\zigbe /
//                          e\Projects\zstack\Samples\SampleApp\CC2530DB\..\. /
//                          .\..\..\..\Components\stack\zdo\ -I               /
//                          E:\Projects\IGreen-Zigbee\zigbee\Projects\zstack\ /
//                          Samples\SampleApp\CC2530DB\..\..\..\..\..\Compone /
//                          nts\zmac\ -I E:\Projects\IGreen-Zigbee\zigbee\Pro /
//                          jects\zstack\Samples\SampleApp\CC2530DB\..\..\..\ /
//                          ..\..\Components\zmac\f8w\ -Ohz                   /
//                          --require_prototypes                              /
//    List file          =  E:\Projects\IGreen-Zigbee\zigbee\Projects\zstack\ /
//                          Samples\SampleApp\CC2530DB\EndDeviceEB\List\Sampl /
//                          eApp.s51                                          /
//                                                                            /
//                                                                            /
///////////////////////////////////////////////////////////////////////////////

        NAME SampleApp

        RTMODEL "__SystemLibrary", "CLib"
        RTMODEL "__calling_convention", "xdata_reentrant"
        RTMODEL "__code_model", "banked"
        RTMODEL "__core", "plain"
        RTMODEL "__data_model", "large"
        RTMODEL "__dptr_size", "16"
        RTMODEL "__extended_stack", "disabled"
        RTMODEL "__location_for_constants", "data"
        RTMODEL "__number_of_dptrs", "1"
        RTMODEL "__rt_version", "1"

        RSEG DOVERLAY:DATA:NOROOT(0)
        RSEG IOVERLAY:IDATA:NOROOT(0)
        RSEG ISTACK:IDATA:NOROOT(0)
        RSEG PSTACK:XDATA:NOROOT(0)
        RSEG XSTACK:XDATA:NOROOT(0)

        EXTERN ?ALLOC_XSTACK8
        EXTERN ?BANKED_ENTER_XDATA
        EXTERN ?BANKED_LEAVE_XDATA
        EXTERN ?BDISPATCH
        EXTERN ?BRET
        EXTERN ?DEALLOC_XSTACK8
        EXTERN ?PUSH_XSTACK_I_ONE
        EXTERN ?PUSH_XSTACK_I_THREE
        EXTERN ?PUSH_XSTACK_I_TWO
        EXTERN ?US_SHR
        EXTERN ?US_SWITCH_DENSE
        EXTERN ?V0
        EXTERN ?XSP
        EXTERN ?XSTACK_DISP0_8
        EXTERN __INIT_XDATA_Z

        PUBLIC ??SampleApp_HandleKeys?relay
        FUNCTION ??SampleApp_HandleKeys?relay,0203H
        PUBLIC ??SampleApp_Init?relay
        FUNCTION ??SampleApp_Init?relay,0203H
        PUBLIC ??SampleApp_MessageMSGCB?relay
        FUNCTION ??SampleApp_MessageMSGCB?relay,0203H
        PUBLIC ??SampleApp_ProcessEvent?relay
        FUNCTION ??SampleApp_ProcessEvent?relay,0203H
        PUBLIC ??SampleApp_SendFlashMessage?relay
        FUNCTION ??SampleApp_SendFlashMessage?relay,0203H
        PUBLIC ??SampleApp_SendPeriodicMessage?relay
        FUNCTION ??SampleApp_SendPeriodicMessage?relay,0203H
        PUBLIC ??sendmsg_temp?relay
        FUNCTION ??sendmsg_temp?relay,0203H
        PUBLIC ??sendmsg_temp_humi?relay
        FUNCTION ??sendmsg_temp_humi?relay,0203H
        PUBWEAK P0SEL
        PUBLIC SampleAppFlashCounter
        PUBLIC SampleAppPeriodicCounter
        PUBLIC SampleApp_ClusterList
        PUBLIC SampleApp_Flash_DstAddr
        PUBLIC SampleApp_Group
        PUBLIC SampleApp_HandleKeys
        FUNCTION SampleApp_HandleKeys,021203H
        ARGFRAME XSTACK, 12, STACK
        ARGFRAME IOVERLAY, 0, STATIC
        ARGFRAME DOVERLAY, 0, STATIC
        LOCFRAME XSTACK, 10, STACK
        PUBLIC SampleApp_Init
        FUNCTION SampleApp_Init,021203H
        ARGFRAME XSTACK, 0, STACK
        LOCFRAME XSTACK, 14, STACK
        PUBLIC SampleApp_MessageMSGCB
        FUNCTION SampleApp_MessageMSGCB,0a1203H
        ARGFRAME XSTACK, 12, STACK
        ARGFRAME IOVERLAY, 0, STATIC
        ARGFRAME DOVERLAY, 0, STATIC
        LOCFRAME XSTACK, 10, STACK
        PUBLIC SampleApp_NwkState
        PUBLIC SampleApp_Periodic_DstAddr
        PUBLIC SampleApp_ProcessEvent
        FUNCTION SampleApp_ProcessEvent,021203H
        ARGFRAME XSTACK, 0, STACK
        LOCFRAME XSTACK, 12, STACK
        PUBLIC SampleApp_SendFlashMessage
        FUNCTION SampleApp_SendFlashMessage,021203H
        ARGFRAME XSTACK, 10, STACK
        ARGFRAME IOVERLAY, 0, STATIC
        ARGFRAME DOVERLAY, 0, STATIC
        LOCFRAME ISTACK, 1, STACK
        LOCFRAME XSTACK, 22, STACK
        PUBLIC SampleApp_SendPeriodicMessage
        FUNCTION SampleApp_SendPeriodicMessage,021203H
        ARGFRAME XSTACK, 0, STACK
        LOCFRAME ISTACK, 2, STACK
        PUBLIC SampleApp_SimpleDesc
        PUBLIC SampleApp_TaskID
        PUBLIC SampleApp_TransID
        PUBLIC SampleApp_epDesc
        PUBLIC sendmsg_temp
        FUNCTION sendmsg_temp,021203H
        ARGFRAME XSTACK, 0, STACK
        LOCFRAME ISTACK, 1, STACK
        LOCFRAME XSTACK, 51, STACK
        PUBLIC sendmsg_temp_humi
        FUNCTION sendmsg_temp_humi,021203H
        ARGFRAME XSTACK, 12, STACK
        ARGFRAME IOVERLAY, 0, STATIC
        ARGFRAME DOVERLAY, 0, STATIC
        LOCFRAME ISTACK, 1, STACK
        LOCFRAME XSTACK, 51, STACK
        
        CFI Names cfiNames0
        CFI StackFrame CFA_SP SP IDATA
        CFI StackFrame CFA_PSP16 PSP16 XDATA
        CFI StackFrame CFA_XSP16 XSP16 XDATA
        CFI StaticOverlayFrame CFA_IOVERLAY IOVERLAY
        CFI StaticOverlayFrame CFA_DOVERLAY DOVERLAY
        CFI Resource `PSW.CY`:1, `B.BR0`:1, `B.BR1`:1, `B.BR2`:1, `B.BR3`:1
        CFI Resource `B.BR4`:1, `B.BR5`:1, `B.BR6`:1, `B.BR7`:1, `VB.BR8`:1
        CFI Resource `VB.BR9`:1, `VB.BR10`:1, `VB.BR11`:1, `VB.BR12`:1
        CFI Resource `VB.BR13`:1, `VB.BR14`:1, `VB.BR15`:1, VB:8, B:8, A:8
        CFI Resource PSW:8, DPL0:8, DPH0:8, R0:8, R1:8, R2:8, R3:8, R4:8, R5:8
        CFI Resource R6:8, R7:8, V0:8, V1:8, V2:8, V3:8, V4:8, V5:8, V6:8, V7:8
        CFI Resource V8:8, V9:8, V10:8, V11:8, V12:8, V13:8, V14:8, V15:8, SP:8
        CFI Resource PSPH:8, PSPL:8, PSP16:16, XSPH:8, XSPL:8, XSP16:16
        CFI VirtualResource ?RET:24
        CFI Resource ?BRET_EXT:8
        CFI VirtualResource ?RET_HIGH:8, ?RET_LOW:8
        CFI ResourceParts PSP16 PSPH, PSPL
        CFI ResourceParts XSP16 XSPH, XSPL
        CFI ResourceParts ?RET ?BRET_EXT, ?RET_HIGH, ?RET_LOW
        CFI EndNames cfiNames0
        
        CFI Common cfiCommon0 Using cfiNames0
        CFI CodeAlign 1
        CFI DataAlign -1
        CFI ReturnAddress ?RET CODE
        CFI CFA_DOVERLAY Used
        CFI CFA_IOVERLAY Used
        CFI CFA_SP SP+-3
        CFI CFA_PSP16 PSP16+0
        CFI CFA_XSP16 XSP16+0
        CFI `PSW.CY` SameValue
        CFI `B.BR0` SameValue
        CFI `B.BR1` SameValue
        CFI `B.BR2` SameValue
        CFI `B.BR3` SameValue
        CFI `B.BR4` SameValue
        CFI `B.BR5` SameValue
        CFI `B.BR6` SameValue
        CFI `B.BR7` SameValue
        CFI `VB.BR8` SameValue
        CFI `VB.BR9` SameValue
        CFI `VB.BR10` SameValue
        CFI `VB.BR11` SameValue
        CFI `VB.BR12` SameValue
        CFI `VB.BR13` SameValue
        CFI `VB.BR14` SameValue
        CFI `VB.BR15` SameValue
        CFI VB SameValue
        CFI B Undefined
        CFI A Undefined
        CFI PSW SameValue
        CFI DPL0 SameValue
        CFI DPH0 SameValue
        CFI R0 Undefined
        CFI R1 Undefined
        CFI R2 Undefined
        CFI R3 Undefined
        CFI R4 Undefined
        CFI R5 Undefined
        CFI R6 SameValue
        CFI R7 SameValue
        CFI V0 SameValue
        CFI V1 SameValue
        CFI V2 SameValue
        CFI V3 SameValue
        CFI V4 SameValue
        CFI V5 SameValue
        CFI V6 SameValue
        CFI V7 SameValue
        CFI V8 SameValue
        CFI V9 SameValue
        CFI V10 SameValue
        CFI V11 SameValue
        CFI V12 SameValue
        CFI V13 SameValue
        CFI V14 SameValue
        CFI V15 SameValue
        CFI PSPH Undefined
        CFI PSPL Undefined
        CFI XSPH Undefined
        CFI XSPL Undefined
        CFI ?RET Concat
        CFI ?BRET_EXT Frame(CFA_SP, 3)
        CFI ?RET_HIGH Frame(CFA_SP, 2)
        CFI ?RET_LOW Frame(CFA_SP, 1)
        CFI EndCommon cfiCommon0
        
        
        CFI Common cfiCommon1 Using cfiNames0
        CFI CodeAlign 1
        CFI DataAlign -1
        CFI ReturnAddress ?RET CODE
        CFI CFA_DOVERLAY Used
        CFI CFA_IOVERLAY Used
        CFI CFA_SP SP+-2
        CFI CFA_PSP16 PSP16+0
        CFI CFA_XSP16 XSP16+0
        CFI `PSW.CY` SameValue
        CFI `B.BR0` SameValue
        CFI `B.BR1` SameValue
        CFI `B.BR2` SameValue
        CFI `B.BR3` SameValue
        CFI `B.BR4` SameValue
        CFI `B.BR5` SameValue
        CFI `B.BR6` SameValue
        CFI `B.BR7` SameValue
        CFI `VB.BR8` SameValue
        CFI `VB.BR9` SameValue
        CFI `VB.BR10` SameValue
        CFI `VB.BR11` SameValue
        CFI `VB.BR12` SameValue
        CFI `VB.BR13` SameValue
        CFI `VB.BR14` SameValue
        CFI `VB.BR15` SameValue
        CFI VB SameValue
        CFI B SameValue
        CFI A SameValue
        CFI PSW SameValue
        CFI DPL0 SameValue
        CFI DPH0 SameValue
        CFI R0 SameValue
        CFI R1 SameValue
        CFI R2 SameValue
        CFI R3 SameValue
        CFI R4 SameValue
        CFI R5 SameValue
        CFI R6 SameValue
        CFI R7 SameValue
        CFI V0 SameValue
        CFI V1 SameValue
        CFI V2 SameValue
        CFI V3 SameValue
        CFI V4 SameValue
        CFI V5 SameValue
        CFI V6 SameValue
        CFI V7 SameValue
        CFI V8 SameValue
        CFI V9 SameValue
        CFI V10 SameValue
        CFI V11 SameValue
        CFI V12 SameValue
        CFI V13 SameValue
        CFI V14 SameValue
        CFI V15 SameValue
        CFI PSPH Undefined
        CFI PSPL Undefined
        CFI XSPH Undefined
        CFI XSPL Undefined
        CFI ?RET Concat
        CFI ?BRET_EXT SameValue
        CFI ?RET_HIGH Frame(CFA_SP, 2)
        CFI ?RET_LOW Frame(CFA_SP, 1)
        CFI EndCommon cfiCommon1
        
Temp_test           SYMBOL "Temp_test"
AF_DataRequest      SYMBOL "AF_DataRequest"
HalUARTWrite        SYMBOL "HalUARTWrite"
DHT11               SYMBOL "DHT11"
HalLedBlink         SYMBOL "HalLedBlink"
MT_UartInit         SYMBOL "MT_UartInit"
MT_UartRegisterTaskID SYMBOL "MT_UartRegisterTaskID"
afRegister          SYMBOL "afRegister"
RegisterForKeys     SYMBOL "RegisterForKeys"
osal_memcpy         SYMBOL "osal_memcpy"
aps_AddGroup        SYMBOL "aps_AddGroup"
HalLcdWriteString   SYMBOL "HalLcdWriteString"
osal_msg_receive    SYMBOL "osal_msg_receive"
osal_start_timerEx  SYMBOL "osal_start_timerEx"
osal_msg_deallocate SYMBOL "osal_msg_deallocate"
osal_rand           SYMBOL "osal_rand"
aps_FindGroup       SYMBOL "aps_FindGroup"
aps_RemoveGroup     SYMBOL "aps_RemoveGroup"
??AF_DataRequest?relay SYMBOL "?relay", AF_DataRequest
??DHT11?relay       SYMBOL "?relay", DHT11
??HalLcdWriteString?relay SYMBOL "?relay", HalLcdWriteString
??HalLedBlink?relay SYMBOL "?relay", HalLedBlink
??HalUARTWrite?relay SYMBOL "?relay", HalUARTWrite
??MT_UartInit?relay SYMBOL "?relay", MT_UartInit
??MT_UartRegisterTaskID?relay SYMBOL "?relay", MT_UartRegisterTaskID
??RegisterForKeys?relay SYMBOL "?relay", RegisterForKeys
??Temp_test?relay   SYMBOL "?relay", Temp_test
??afRegister?relay  SYMBOL "?relay", afRegister
??aps_AddGroup?relay SYMBOL "?relay", aps_AddGroup
??aps_FindGroup?relay SYMBOL "?relay", aps_FindGroup
??aps_RemoveGroup?relay SYMBOL "?relay", aps_RemoveGroup
??osal_memcpy?relay SYMBOL "?relay", osal_memcpy
??osal_msg_deallocate?relay SYMBOL "?relay", osal_msg_deallocate
??osal_msg_receive?relay SYMBOL "?relay", osal_msg_receive
??osal_rand?relay   SYMBOL "?relay", osal_rand
??osal_start_timerEx?relay SYMBOL "?relay", osal_start_timerEx
SampleApp_HandleKeys SYMBOL "SampleApp_HandleKeys"
??SampleApp_HandleKeys?relay SYMBOL "?relay", SampleApp_HandleKeys
SampleApp_Init      SYMBOL "SampleApp_Init"
??SampleApp_Init?relay SYMBOL "?relay", SampleApp_Init
SampleApp_MessageMSGCB SYMBOL "SampleApp_MessageMSGCB"
??SampleApp_MessageMSGCB?relay SYMBOL "?relay", SampleApp_MessageMSGCB
SampleApp_ProcessEvent SYMBOL "SampleApp_ProcessEvent"
??SampleApp_ProcessEvent?relay SYMBOL "?relay", SampleApp_ProcessEvent
SampleApp_SendFlashMessage SYMBOL "SampleApp_SendFlashMessage"
??SampleApp_SendFlashMessage?relay SYMBOL "?relay", SampleApp_SendFlashMessage
SampleApp_SendPeriodicMessage SYMBOL "SampleApp_SendPeriodicMessage"
??SampleApp_SendPeriodicMessage?relay SYMBOL "?relay", SampleApp_SendPeriodicMessage
sendmsg_temp        SYMBOL "sendmsg_temp"
??sendmsg_temp?relay SYMBOL "?relay", sendmsg_temp
sendmsg_temp_humi   SYMBOL "sendmsg_temp_humi"
??sendmsg_temp_humi?relay SYMBOL "?relay", sendmsg_temp_humi

        EXTERN Temp_test
        FUNCTION Temp_test,0202H
        ARGFRAME ISTACK, 0, STACK
        ARGFRAME PSTACK, 0, STACK
        ARGFRAME XSTACK, 42, STACK
        ARGFRAME IOVERLAY, 0, STATIC
        ARGFRAME DOVERLAY, 0, STATIC
        EXTERN AF_DataRequest
        FUNCTION AF_DataRequest,0202H
        ARGFRAME ISTACK, 0, STACK
        ARGFRAME PSTACK, 0, STACK
        ARGFRAME XSTACK, 51, STACK
        ARGFRAME IOVERLAY, 0, STATIC
        ARGFRAME DOVERLAY, 0, STATIC
        EXTERN HalUARTWrite
        FUNCTION HalUARTWrite,0202H
        ARGFRAME ISTACK, 0, STACK
        ARGFRAME PSTACK, 0, STACK
        ARGFRAME XSTACK, 42, STACK
        ARGFRAME IOVERLAY, 0, STATIC
        ARGFRAME DOVERLAY, 0, STATIC
        EXTERN DHT11
        FUNCTION DHT11,0202H
        ARGFRAME ISTACK, 0, STACK
        ARGFRAME PSTACK, 0, STACK
        ARGFRAME XSTACK, 42, STACK
        ARGFRAME IOVERLAY, 0, STATIC
        ARGFRAME DOVERLAY, 0, STATIC
        EXTERN HalLedBlink
        FUNCTION HalLedBlink,0202H
        ARGFRAME ISTACK, 0, STACK
        ARGFRAME PSTACK, 0, STACK
        ARGFRAME XSTACK, 10, STACK
        ARGFRAME IOVERLAY, 0, STATIC
        ARGFRAME DOVERLAY, 0, STATIC
        EXTERN MT_UartInit
        FUNCTION MT_UartInit,0202H
        ARGFRAME ISTACK, 0, STACK
        ARGFRAME PSTACK, 0, STACK
        ARGFRAME XSTACK, 11, STACK
        ARGFRAME IOVERLAY, 0, STATIC
        ARGFRAME DOVERLAY, 0, STATIC
        EXTERN MT_UartRegisterTaskID
        FUNCTION MT_UartRegisterTaskID,0202H
        ARGFRAME ISTACK, 0, STACK
        ARGFRAME PSTACK, 0, STACK
        ARGFRAME XSTACK, 11, STACK
        ARGFRAME IOVERLAY, 0, STATIC
        ARGFRAME DOVERLAY, 0, STATIC
        EXTERN afRegister
        FUNCTION afRegister,0202H
        ARGFRAME ISTACK, 0, STACK
        ARGFRAME PSTACK, 0, STACK
        ARGFRAME XSTACK, 11, STACK
        ARGFRAME IOVERLAY, 0, STATIC
        ARGFRAME DOVERLAY, 0, STATIC
        EXTERN RegisterForKeys
        FUNCTION RegisterForKeys,0202H
        ARGFRAME ISTACK, 0, STACK
        ARGFRAME PSTACK, 0, STACK
        ARGFRAME XSTACK, 11, STACK
        ARGFRAME IOVERLAY, 0, STATIC
        ARGFRAME DOVERLAY, 0, STATIC
        EXTERN osal_memcpy
        FUNCTION osal_memcpy,0202H
        ARGFRAME ISTACK, 0, STACK
        ARGFRAME PSTACK, 0, STACK
        ARGFRAME XSTACK, 14, STACK
        ARGFRAME IOVERLAY, 0, STATIC
        ARGFRAME DOVERLAY, 0, STATIC
        EXTERN aps_AddGroup
        FUNCTION aps_AddGroup,0202H
        ARGFRAME ISTACK, 0, STACK
        ARGFRAME PSTACK, 0, STACK
        ARGFRAME XSTACK, 11, STACK
        ARGFRAME IOVERLAY, 0, STATIC
        ARGFRAME DOVERLAY, 0, STATIC
        EXTERN HalLcdWriteString
        FUNCTION HalLcdWriteString,0202H
        ARGFRAME ISTACK, 0, STACK
        ARGFRAME PSTACK, 0, STACK
        ARGFRAME XSTACK, 11, STACK
        ARGFRAME IOVERLAY, 0, STATIC
        ARGFRAME DOVERLAY, 0, STATIC
        EXTERN osal_msg_receive
        FUNCTION osal_msg_receive,0202H
        ARGFRAME ISTACK, 0, STACK
        ARGFRAME PSTACK, 0, STACK
        ARGFRAME XSTACK, 12, STACK
        ARGFRAME IOVERLAY, 0, STATIC
        ARGFRAME DOVERLAY, 0, STATIC
        EXTERN osal_start_timerEx
        FUNCTION osal_start_timerEx,0202H
        ARGFRAME ISTACK, 0, STACK
        ARGFRAME PSTACK, 0, STACK
        ARGFRAME XSTACK, 12, STACK
        ARGFRAME IOVERLAY, 0, STATIC
        ARGFRAME DOVERLAY, 0, STATIC
        EXTERN osal_msg_deallocate
        FUNCTION osal_msg_deallocate,0202H
        ARGFRAME ISTACK, 0, STACK
        ARGFRAME PSTACK, 0, STACK
        ARGFRAME XSTACK, 12, STACK
        ARGFRAME IOVERLAY, 0, STATIC
        ARGFRAME DOVERLAY, 0, STATIC
        EXTERN osal_rand
        FUNCTION osal_rand,0202H
        ARGFRAME ISTACK, 0, STACK
        ARGFRAME PSTACK, 0, STACK
        ARGFRAME XSTACK, 12, STACK
        ARGFRAME IOVERLAY, 0, STATIC
        ARGFRAME DOVERLAY, 0, STATIC
        EXTERN aps_FindGroup
        FUNCTION aps_FindGroup,0202H
        ARGFRAME ISTACK, 0, STACK
        ARGFRAME PSTACK, 0, STACK
        ARGFRAME XSTACK, 10, STACK
        ARGFRAME IOVERLAY, 0, STATIC
        ARGFRAME DOVERLAY, 0, STATIC
        EXTERN aps_RemoveGroup
        FUNCTION aps_RemoveGroup,0202H
        ARGFRAME ISTACK, 0, STACK
        ARGFRAME PSTACK, 0, STACK
        ARGFRAME XSTACK, 10, STACK
        ARGFRAME IOVERLAY, 0, STATIC
        ARGFRAME DOVERLAY, 0, STATIC
        EXTERN ??AF_DataRequest?relay
        FUNCTION ??AF_DataRequest?relay,00H
        EXTERN ??DHT11?relay
        FUNCTION ??DHT11?relay,00H
        EXTERN ??HalLcdWriteString?relay
        FUNCTION ??HalLcdWriteString?relay,00H
        EXTERN ??HalLedBlink?relay
        FUNCTION ??HalLedBlink?relay,00H
        EXTERN ??HalUARTWrite?relay
        FUNCTION ??HalUARTWrite?relay,00H
        EXTERN ??MT_UartInit?relay
        FUNCTION ??MT_UartInit?relay,00H
        EXTERN ??MT_UartRegisterTaskID?relay
        FUNCTION ??MT_UartRegisterTaskID?relay,00H
        EXTERN ??RegisterForKeys?relay
        FUNCTION ??RegisterForKeys?relay,00H
        EXTERN ??Temp_test?relay
        FUNCTION ??Temp_test?relay,00H
        EXTERN ??afRegister?relay
        FUNCTION ??afRegister?relay,00H
        EXTERN ??aps_AddGroup?relay
        FUNCTION ??aps_AddGroup?relay,00H
        EXTERN ??aps_FindGroup?relay
        FUNCTION ??aps_FindGroup?relay,00H
        EXTERN ??aps_RemoveGroup?relay
        FUNCTION ??aps_RemoveGroup?relay,00H
        EXTERN ??osal_memcpy?relay
        FUNCTION ??osal_memcpy?relay,00H
        EXTERN ??osal_msg_deallocate?relay
        FUNCTION ??osal_msg_deallocate?relay,00H
        EXTERN ??osal_msg_receive?relay
        FUNCTION ??osal_msg_receive?relay,00H
        EXTERN ??osal_rand?relay
        FUNCTION ??osal_rand?relay,00H
        EXTERN ??osal_start_timerEx?relay
        FUNCTION ??osal_start_timerEx?relay,00H
        EXTERN humi_decade
        EXTERN humi_unit
        EXTERN temp_decade
        EXTERN temp_ds18b20
        EXTERN temp_unit

// E:\Projects\IGreen-Zigbee\zigbee\Projects\zstack\Samples\SampleApp\Source\SampleApp.c
//    1 #include <stdio.h>
//    2 #include <string.h>
//    3 #include "OSAL.h"
//    4 #include "ZGlobals.h"
//    5 #include "AF.h"
//    6 #include "aps_groups.h"
//    7 #include "ZDApp.h"
//    8 #include "SampleApp.h"
//    9 #include "SampleAppHw.h"
//   10 #include "OnBoard.h"

        ASEGN SFR_AN:DATA:NOROOT,0f3H
// unsigned char volatile __sfr P0SEL
P0SEL:
        DATA8
        DS 1
//   11 /* HAL */
//   12 #include "hal_lcd.h"
//   13 #include "hal_led.h"
//   14 #include "hal_key.h"
//   15 #include "ds18b20.h" //温度传感器头文件
//   16 #include "MT_UART.h" //此处用于串口
//   17 #include "DHT11.H" //温湿度传感器头文件      
//   18 #include "instructions.h" //存放Igreen通信协议
//   19 
//   20 /**
//   21  *  @CopyRight(版权): 华韵科技有限公司 2016~2026
//   22  *  @作者： 主要负责人：姜陈俊 辅助：王辰浩
//   23  *  @日期： 2016/4/5
//   24  *  @描述： 本文件是应用的主要文件
//   25  *  @主要函数列表： 
//   26  *     1. void SampleApp_Init( uint8 task_id )
//   27  *                                                   //初始化串口
//   28  *     2. void SampleApp_SendPeriodicMessage(void)   
//   29  *                                                   //子节点周期性发送数据给主节点
//   30  *     3. void SampleApp_MessageMSGCB(afIncomingMSGPacket_t pkt)
//   31  *                                                    //主节点将接收的数据通过串口给终端
//   32  */
//   33 
//   34 
//   35 #define LED P1_0
//   36 //#define HUMI_PIN P2_0 //定义土壤湿度的检测引脚
//   37 void sendmsg_temp_humi(void);  //发送温度和湿度
//   38 void sendmsg_temp(void);   //18b20温度
//   39 
//   40 void SampleApp_HandleKeys( uint8 shift, uint8 keys );
//   41 void SampleApp_MessageMSGCB( afIncomingMSGPacket_t *pckt );
//   42 void SampleApp_SendPeriodicMessage( void );
//   43 void SampleApp_SendFlashMessage( uint16 flashTime );
//   44 
//   45 // 该列表需要填放应用程序特定的Cluster IDs(暂译为簇ID)

        RSEG XDATA_ROM_C:CONST:REORDER:NOROOT(0)
        DATA32
//   46 const cId_t SampleApp_ClusterList[SAMPLEAPP_MAX_CLUSTERS] =
SampleApp_ClusterList:
        DATA16
        DW 1
        DW 2
//   47 {
//   48   SAMPLEAPP_PERIODIC_CLUSTERID,
//   49   SAMPLEAPP_FLASH_CLUSTERID
//   50 };
//   51 

        RSEG XDATA_ROM_C:CONST:REORDER:NOROOT(0)
        DATA8
//   52 const SimpleDescriptionFormat_t SampleApp_SimpleDesc =
SampleApp_SimpleDesc:
        DB 20
        DATA16
        DW 3848
        DW 1
        DATA8
        DB 0
        DB 2
        DATA16
        DW SampleApp_ClusterList
        DATA8
        DB 2
        DATA16
        DW SampleApp_ClusterList
//   53 {
//   54   SAMPLEAPP_ENDPOINT,              //  int Endpoint;
//   55   SAMPLEAPP_PROFID,                //  uint16 AppProfId[2];
//   56   SAMPLEAPP_DEVICEID,              //  uint16 AppDeviceId[2];
//   57   SAMPLEAPP_DEVICE_VERSION,        //  int   AppDevVer:4;
//   58   SAMPLEAPP_FLAGS,                 //  int   AppFlags:4;
//   59   SAMPLEAPP_MAX_CLUSTERS,          //  uint8  AppNumInClusters;
//   60   (cId_t *)SampleApp_ClusterList,  //  uint8 *pAppInClusterList;
//   61   SAMPLEAPP_MAX_CLUSTERS,          //  uint8  AppNumInClusters;
//   62   (cId_t *)SampleApp_ClusterList   //  uint8 *pAppInClusterList;
//   63 };
//   64 
//   65 // This is the Endpoint/Interface description.  It is defined here, but
//   66 // filled-in in SampleApp_Init().  Another way to go would be to fill
//   67 // in the structure here and make it a "const" (in code space).  The
//   68 // way it's defined in this sample app it is define in RAM.

        RSEG XDATA_Z:XDATA:NOROOT(0)
        DATA8
//   69 endPointDesc_t SampleApp_epDesc;
SampleApp_epDesc:
        DS 6
        REQUIRE __INIT_XDATA_Z
//   70 
//   71 

        RSEG XDATA_Z:XDATA:NOROOT(0)
        DATA8
//   72 uint8 SampleApp_TaskID;   // Task ID for internal task/event processing
SampleApp_TaskID:
        DS 1
        REQUIRE __INIT_XDATA_Z
//   73                           // This variable will be received when
//   74                           // SampleApp_Init() is called.

        RSEG XDATA_Z:XDATA:NOROOT(0)
        DATA8
//   75 devStates_t SampleApp_NwkState;
SampleApp_NwkState:
        DS 1
        REQUIRE __INIT_XDATA_Z
//   76 

        RSEG XDATA_Z:XDATA:NOROOT(0)
        DATA8
//   77 uint8 SampleApp_TransID;  // This is the unique message ID (counter)
SampleApp_TransID:
        DS 1
        REQUIRE __INIT_XDATA_Z
//   78 

        RSEG XDATA_Z:XDATA:NOROOT(0)
        DATA8
//   79 afAddrType_t SampleApp_Periodic_DstAddr;
SampleApp_Periodic_DstAddr:
        DS 12
        REQUIRE __INIT_XDATA_Z

        RSEG XDATA_Z:XDATA:NOROOT(0)
        DATA8
//   80 afAddrType_t SampleApp_Flash_DstAddr;
SampleApp_Flash_DstAddr:
        DS 12
        REQUIRE __INIT_XDATA_Z
//   81 

        RSEG XDATA_Z:XDATA:NOROOT(0)
        DATA8
//   82 aps_Group_t SampleApp_Group;
SampleApp_Group:
        DS 18
        REQUIRE __INIT_XDATA_Z
//   83 

        RSEG XDATA_Z:XDATA:NOROOT(0)
        DATA8
//   84 uint8 SampleAppPeriodicCounter = 0;
SampleAppPeriodicCounter:
        DS 1
        REQUIRE __INIT_XDATA_Z

        RSEG XDATA_Z:XDATA:NOROOT(0)
        DATA8
//   85 uint8 SampleAppFlashCounter = 0;
SampleAppFlashCounter:
        DS 1
        REQUIRE __INIT_XDATA_Z
//   86 
//   87 /**----------------------------------------------------------------*
//   88  * @函数    SampleApp_SendPeriodicMessage
//   89  * @简介   发送周期性信息(给主节点)
//   90  * @参数    none
//   91  * @返回值  none
//   92  *----------------------------------------------------------------*/

        RSEG BANKED_CODE:CODE:NOROOT(0)
//   93 void SampleApp_SendPeriodicMessage( void )
SampleApp_SendPeriodicMessage:
        CFI Block cfiBlock0 Using cfiCommon0
        CFI Function SampleApp_SendPeriodicMessage
        CODE
//   94 {
        FUNCALL SampleApp_SendPeriodicMessage, sendmsg_temp_humi
        LOCFRAME ISTACK, 2, STACK
        LOCFRAME PSTACK, 0, STACK
        LOCFRAME XSTACK, 0, STACK
        LOCFRAME IOVERLAY, 0, STATIC
        LOCFRAME DOVERLAY, 0, STATIC
        ARGFRAME ISTACK, 2, STACK
        ARGFRAME PSTACK, 0, STACK
        ARGFRAME XSTACK, 0, STACK
        ARGFRAME IOVERLAY, 0, STATIC
        ARGFRAME DOVERLAY, 0, STATIC
        PUSH    DPL
        CFI DPL0 Frame(CFA_SP, 4)
        CFI CFA_SP SP+-4
        PUSH    DPH
        CFI DPH0 Frame(CFA_SP, 5)
        CFI CFA_SP SP+-5
        ; Saved register size: 2
        ; Auto size: 0
//   95     sendmsg_temp_humi(); //发送温度和湿度
        ; Setup parameters for call to function sendmsg_temp_humi
        LCALL   ??sendmsg_temp_humi?relay
//   96     //sendmsg_temp();
//   97 
//   98 }
        POP     DPH
        CFI DPH0 SameValue
        CFI CFA_SP SP+-4
        POP     DPL
        CFI DPL0 SameValue
        CFI CFA_SP SP+-3
        LJMP    ?BRET
        CFI EndBlock cfiBlock0
//   99 
//  100 /**----------------------------------------------------------------*
//  101  * @函数    void sendmsg_temp_humi(void)
//  102  * @简介    发送温度和湿度
//  103  * @参数    none
//  104  * @返回值  none
//  105  *----------------------------------------------------------------*/

        RSEG BANKED_CODE:CODE:NOROOT(0)
//  106 void sendmsg_temp(void)
sendmsg_temp:
        CFI Block cfiBlock1 Using cfiCommon0
        CFI Function sendmsg_temp
        CODE
//  107 {
        FUNCALL sendmsg_temp, Temp_test
        LOCFRAME ISTACK, 0, STACK
        LOCFRAME PSTACK, 0, STACK
        LOCFRAME XSTACK, 42, STACK
        LOCFRAME IOVERLAY, 0, STATIC
        LOCFRAME DOVERLAY, 0, STATIC
        ARGFRAME ISTACK, 0, STACK
        ARGFRAME PSTACK, 0, STACK
        ARGFRAME XSTACK, 42, STACK
        ARGFRAME IOVERLAY, 0, STATIC
        ARGFRAME DOVERLAY, 0, STATIC
        FUNCALL sendmsg_temp, AF_DataRequest
        LOCFRAME ISTACK, 0, STACK
        LOCFRAME PSTACK, 0, STACK
        LOCFRAME XSTACK, 51, STACK
        LOCFRAME IOVERLAY, 0, STATIC
        LOCFRAME DOVERLAY, 0, STATIC
        ARGFRAME ISTACK, 0, STACK
        ARGFRAME PSTACK, 0, STACK
        ARGFRAME XSTACK, 51, STACK
        ARGFRAME IOVERLAY, 0, STATIC
        ARGFRAME DOVERLAY, 0, STATIC
        FUNCALL sendmsg_temp, HalUARTWrite
        LOCFRAME ISTACK, 0, STACK
        LOCFRAME PSTACK, 0, STACK
        LOCFRAME XSTACK, 42, STACK
        LOCFRAME IOVERLAY, 0, STATIC
        LOCFRAME DOVERLAY, 0, STATIC
        ARGFRAME ISTACK, 0, STACK
        ARGFRAME PSTACK, 0, STACK
        ARGFRAME XSTACK, 42, STACK
        ARGFRAME IOVERLAY, 0, STATIC
        ARGFRAME DOVERLAY, 0, STATIC
        MOV     A,#-0xa
        LCALL   ?BANKED_ENTER_XDATA
        CFI DPH0 load(1, XDATA, add(CFA_XSP16, literal(-1)))
        CFI DPL0 load(1, XDATA, add(CFA_XSP16, literal(-2)))
        CFI ?BRET_EXT load(1, XDATA, add(CFA_XSP16, literal(-3)))
        CFI ?RET_HIGH load(1, XDATA, add(CFA_XSP16, literal(-4)))
        CFI ?RET_LOW load(1, XDATA, add(CFA_XSP16, literal(-5)))
        CFI R7 load(1, XDATA, add(CFA_XSP16, literal(-6)))
        CFI V1 load(1, XDATA, add(CFA_XSP16, literal(-7)))
        CFI V0 load(1, XDATA, add(CFA_XSP16, literal(-8)))
        CFI VB load(1, XDATA, add(CFA_XSP16, literal(-9)))
        CFI R6 load(1, XDATA, add(CFA_XSP16, literal(-10)))
        CFI CFA_SP SP+0
        CFI CFA_XSP16 add(XSP16, 10)
        ; Saved register size: 10
        ; Auto size: 32
        MOV     A,#-0x20
        LCALL   ?ALLOC_XSTACK8
        CFI CFA_XSP16 add(XSP16, 42)
//  108      uint8 buffer[32];
//  109   /*----------------------------------- 
//  110    *  温度湿度检测将其放入缓冲区
//  111    *----------------------------------*/
//  112   Temp_test();    //温度检测
        ; Setup parameters for call to function Temp_test
        LCALL   ??Temp_test?relay
//  113   buffer[0] = RES_TEMP;   //温度 
        MOV     DPL,?XSP + 0
        MOV     DPH,?XSP + 1
        MOV     A,#0x50
        MOVX    @DPTR,A
//  114   buffer[1] = 0; buffer[2] = 0; buffer[3] = 0; buffer[4] = 1; //4byte=32bit 唯一ID
        MOV     A,#0x1
        LCALL   ?XSTACK_DISP0_8
        CLR     A
        MOVX    @DPTR,A
        MOV     A,#0x2
        LCALL   ?XSTACK_DISP0_8
        CLR     A
        MOVX    @DPTR,A
        MOV     A,#0x3
        LCALL   ?XSTACK_DISP0_8
        CLR     A
        MOVX    @DPTR,A
        MOV     A,#0x4
        LCALL   ?XSTACK_DISP0_8
        MOV     A,#0x1
        MOVX    @DPTR,A
//  115   buffer[5] = CMD_SEP; 
        MOV     A,#0x5
        LCALL   ?XSTACK_DISP0_8
        MOV     A,#0x2f
        MOVX    @DPTR,A
//  116   buffer[6] = temp_ds18b20/10 + '0';
        MOV     B,#0xa
        MOV     DPTR,#temp_ds18b20
        MOVX    A,@DPTR
        DIV     AB
        ADD     A,#0x30
        PUSH    A
        CFI CFA_SP SP+-1
        MOV     A,#0x6
        LCALL   ?XSTACK_DISP0_8
        POP     A
        CFI CFA_SP SP+0
        MOVX    @DPTR,A
//  117   buffer[7] = temp_ds18b20%10 + '0';
        MOV     DPTR,#temp_ds18b20
        MOVX    A,@DPTR
        MOV     B,#0xa
        DIV     AB
        MOV     A,B
        ADD     A,#0x30
        PUSH    A
        CFI CFA_SP SP+-1
        MOV     A,#0x7
        LCALL   ?XSTACK_DISP0_8
        POP     A
        CFI CFA_SP SP+0
        MOVX    @DPTR,A
//  118   buffer[8]= CMD_END; 
        MOV     A,#0x8
        LCALL   ?XSTACK_DISP0_8
        LCALL   ?Subroutine2 & 0xFFFF
//  119   //将温度发送给节点
//  120   if ( AF_DataRequest( &SampleApp_Periodic_DstAddr, &SampleApp_epDesc,
//  121                        SAMPLEAPP_PERIODIC_CLUSTERID, //和主节点中SampleApp_MessageMSGCB的SAMPLEAPP_PERIODIC_CLUSTERID一致。
//  122                        9,//字节数
//  123                        buffer,//存放温度缓冲区
//  124                        &SampleApp_TransID,
//  125                        AF_DISCV_ROUTE,
//  126                        AF_DEFAULT_RADIUS ) == afStatus_SUCCESS )
??CrossCallReturnLabel_7:
        LCALL   ?PUSH_XSTACK_I_ONE
        CFI CFA_XSP16 add(XSP16, 43)
        MOV     ?V0 + 0,#SampleApp_TransID & 0xff
        MOV     ?V0 + 1,#(SampleApp_TransID >> 8) & 0xff
        MOV     R0,#?V0 + 0
        LCALL   ?PUSH_XSTACK_I_TWO
        CFI CFA_XSP16 add(XSP16, 45)
        MOV     A,#0x3
        LCALL   ?XSTACK_DISP0_8
        MOV     ?V0 + 0,DPL
        MOV     ?V0 + 1,DPH
        MOV     R0,#?V0 + 0
        LCALL   ?PUSH_XSTACK_I_TWO
        CFI CFA_XSP16 add(XSP16, 47)
        MOV     ?V0 + 0,#0x9
        MOV     ?V0 + 1,#0x0
        MOV     R0,#?V0 + 0
        LCALL   ?PUSH_XSTACK_I_TWO
        CFI CFA_XSP16 add(XSP16, 49)
        MOV     ?V0 + 0,#0x1
        MOV     R0,#?V0 + 0
        LCALL   ?PUSH_XSTACK_I_TWO
        CFI CFA_XSP16 add(XSP16, 51)
        LCALL   ?Subroutine3 & 0xFFFF
??CrossCallReturnLabel_3:
        LCALL   ?DEALLOC_XSTACK8
        CFI CFA_XSP16 add(XSP16, 42)
        MOV     A,R1
        JNZ     ??sendmsg_temp_0
//  127   {
//  128       HalUARTWrite(0, "temp success\n", strlen("temp success\n")); //显示温度发送成功
        ; Setup parameters for call to function HalUARTWrite
        MOV     R4,#0xd
        MOV     R5,#0x0
        MOV     R2,#`?<Constant "temp success\\n">` & 0xff
        MOV     R3,#(`?<Constant "temp success\\n">` >> 8) & 0xff
        MOV     R1,#0x0
        LCALL   ??HalUARTWrite?relay
//  129   } 
//  130   else{// Error occurred in request to send.
//  131   }
//  132 }
??sendmsg_temp_0:
        LJMP    ?Subroutine0 & 0xFFFF
        CFI EndBlock cfiBlock1

        RSEG BANKED_CODE:CODE:NOROOT(0)
?Subroutine3:
        CFI Block cfiCond2 Using cfiCommon0
        CFI NoFunction
        CFI Conditional ??CrossCallReturnLabel_3
        CFI R6 load(1, XDATA, add(CFA_XSP16, literal(-10)))
        CFI VB load(1, XDATA, add(CFA_XSP16, literal(-9)))
        CFI V0 load(1, XDATA, add(CFA_XSP16, literal(-8)))
        CFI V1 load(1, XDATA, add(CFA_XSP16, literal(-7)))
        CFI R7 load(1, XDATA, add(CFA_XSP16, literal(-6)))
        CFI ?RET_LOW load(1, XDATA, add(CFA_XSP16, literal(-5)))
        CFI ?RET_HIGH load(1, XDATA, add(CFA_XSP16, literal(-4)))
        CFI ?BRET_EXT load(1, XDATA, add(CFA_XSP16, literal(-3)))
        CFI DPL0 load(1, XDATA, add(CFA_XSP16, literal(-2)))
        CFI DPH0 load(1, XDATA, add(CFA_XSP16, literal(-1)))
        CFI CFA_SP SP+0
        CFI CFA_XSP16 add(XSP16, 51)
        CFI Block cfiCond3 Using cfiCommon0
        CFI (cfiCond3) NoFunction
        CFI (cfiCond3) Conditional ??CrossCallReturnLabel_4
        CFI (cfiCond3) R6 load(1, XDATA, add(CFA_XSP16, literal(-10)))
        CFI (cfiCond3) VB load(1, XDATA, add(CFA_XSP16, literal(-9)))
        CFI (cfiCond3) V0 load(1, XDATA, add(CFA_XSP16, literal(-8)))
        CFI (cfiCond3) V1 load(1, XDATA, add(CFA_XSP16, literal(-7)))
        CFI (cfiCond3) R7 load(1, XDATA, add(CFA_XSP16, literal(-6)))
        CFI (cfiCond3) ?RET_LOW load(1, XDATA, add(CFA_XSP16, literal(-5)))
        CFI (cfiCond3) ?RET_HIGH load(1, XDATA, add(CFA_XSP16, literal(-4)))
        CFI (cfiCond3) ?BRET_EXT load(1, XDATA, add(CFA_XSP16, literal(-3)))
        CFI (cfiCond3) DPL0 load(1, XDATA, add(CFA_XSP16, literal(-2)))
        CFI (cfiCond3) DPH0 load(1, XDATA, add(CFA_XSP16, literal(-1)))
        CFI (cfiCond3) CFA_SP SP+0
        CFI (cfiCond3) CFA_XSP16 add(XSP16, 51)
        CFI Block cfiCond4 Using cfiCommon0
        CFI (cfiCond4) NoFunction
        CFI (cfiCond4) Conditional ??CrossCallReturnLabel_5
        CFI (cfiCond4) R6 load(1, XDATA, add(CFA_XSP16, literal(-10)))
        CFI (cfiCond4) VB load(1, XDATA, add(CFA_XSP16, literal(-9)))
        CFI (cfiCond4) V0 load(1, XDATA, add(CFA_XSP16, literal(-8)))
        CFI (cfiCond4) V1 load(1, XDATA, add(CFA_XSP16, literal(-7)))
        CFI (cfiCond4) R7 load(1, XDATA, add(CFA_XSP16, literal(-6)))
        CFI (cfiCond4) ?RET_LOW load(1, XDATA, add(CFA_XSP16, literal(-5)))
        CFI (cfiCond4) ?RET_HIGH load(1, XDATA, add(CFA_XSP16, literal(-4)))
        CFI (cfiCond4) ?BRET_EXT load(1, XDATA, add(CFA_XSP16, literal(-3)))
        CFI (cfiCond4) DPL0 load(1, XDATA, add(CFA_XSP16, literal(-2)))
        CFI (cfiCond4) DPH0 load(1, XDATA, add(CFA_XSP16, literal(-1)))
        CFI (cfiCond4) CFA_SP SP+0
        CFI (cfiCond4) CFA_XSP16 add(XSP16, 51)
        CFI Block cfiPicker5 Using cfiCommon1
        CFI (cfiPicker5) NoFunction
        CFI (cfiPicker5) Picker
        MOV     R1,#0x20
        MOV     R4,#SampleApp_epDesc & 0xff
        MOV     R5,#(SampleApp_epDesc >> 8) & 0xff
        MOV     R2,#SampleApp_Periodic_DstAddr & 0xff
        MOV     R3,#(SampleApp_Periodic_DstAddr >> 8) & 0xff
        CFI EndBlock cfiCond2
        CFI EndBlock cfiCond3
        CFI EndBlock cfiCond4
        CFI EndBlock cfiPicker5
        REQUIRE ??Subroutine4_0
        ; // Fall through to label ??Subroutine4_0

        RSEG BANKED_CODE:CODE:NOROOT(0)
??Subroutine4_0:
        CFI Block cfiCond6 Using cfiCommon0
        CFI NoFunction
        CFI Conditional ??CrossCallReturnLabel_6
        CFI R6 load(1, XDATA, add(CFA_XSP16, literal(-10)))
        CFI VB load(1, XDATA, add(CFA_XSP16, literal(-9)))
        CFI V0 load(1, XDATA, add(CFA_XSP16, literal(-8)))
        CFI V1 load(1, XDATA, add(CFA_XSP16, literal(-7)))
        CFI R7 load(1, XDATA, add(CFA_XSP16, literal(-6)))
        CFI ?RET_LOW load(1, XDATA, add(CFA_XSP16, literal(-5)))
        CFI ?RET_HIGH load(1, XDATA, add(CFA_XSP16, literal(-4)))
        CFI ?BRET_EXT load(1, XDATA, add(CFA_XSP16, literal(-3)))
        CFI DPL0 load(1, XDATA, add(CFA_XSP16, literal(-2)))
        CFI DPH0 load(1, XDATA, add(CFA_XSP16, literal(-1)))
        CFI CFA_SP SP+0
        CFI CFA_XSP16 add(XSP16, 22)
        CFI Block cfiCond7 Using cfiCommon0
        CFI (cfiCond7) NoFunction
        CFI (cfiCond7) Conditional ??CrossCallReturnLabel_3
        CFI (cfiCond7) R6 load(1, XDATA, add(CFA_XSP16, literal(-10)))
        CFI (cfiCond7) VB load(1, XDATA, add(CFA_XSP16, literal(-9)))
        CFI (cfiCond7) V0 load(1, XDATA, add(CFA_XSP16, literal(-8)))
        CFI (cfiCond7) V1 load(1, XDATA, add(CFA_XSP16, literal(-7)))
        CFI (cfiCond7) R7 load(1, XDATA, add(CFA_XSP16, literal(-6)))
        CFI (cfiCond7) ?RET_LOW load(1, XDATA, add(CFA_XSP16, literal(-5)))
        CFI (cfiCond7) ?RET_HIGH load(1, XDATA, add(CFA_XSP16, literal(-4)))
        CFI (cfiCond7) ?BRET_EXT load(1, XDATA, add(CFA_XSP16, literal(-3)))
        CFI (cfiCond7) DPL0 load(1, XDATA, add(CFA_XSP16, literal(-2)))
        CFI (cfiCond7) DPH0 load(1, XDATA, add(CFA_XSP16, literal(-1)))
        CFI (cfiCond7) CFA_SP SP+0
        CFI (cfiCond7) CFA_XSP16 add(XSP16, 51)
        CFI Block cfiCond8 Using cfiCommon0
        CFI (cfiCond8) NoFunction
        CFI (cfiCond8) Conditional ??CrossCallReturnLabel_4
        CFI (cfiCond8) R6 load(1, XDATA, add(CFA_XSP16, literal(-10)))
        CFI (cfiCond8) VB load(1, XDATA, add(CFA_XSP16, literal(-9)))
        CFI (cfiCond8) V0 load(1, XDATA, add(CFA_XSP16, literal(-8)))
        CFI (cfiCond8) V1 load(1, XDATA, add(CFA_XSP16, literal(-7)))
        CFI (cfiCond8) R7 load(1, XDATA, add(CFA_XSP16, literal(-6)))
        CFI (cfiCond8) ?RET_LOW load(1, XDATA, add(CFA_XSP16, literal(-5)))
        CFI (cfiCond8) ?RET_HIGH load(1, XDATA, add(CFA_XSP16, literal(-4)))
        CFI (cfiCond8) ?BRET_EXT load(1, XDATA, add(CFA_XSP16, literal(-3)))
        CFI (cfiCond8) DPL0 load(1, XDATA, add(CFA_XSP16, literal(-2)))
        CFI (cfiCond8) DPH0 load(1, XDATA, add(CFA_XSP16, literal(-1)))
        CFI (cfiCond8) CFA_SP SP+0
        CFI (cfiCond8) CFA_XSP16 add(XSP16, 51)
        CFI Block cfiCond9 Using cfiCommon0
        CFI (cfiCond9) NoFunction
        CFI (cfiCond9) Conditional ??CrossCallReturnLabel_5
        CFI (cfiCond9) R6 load(1, XDATA, add(CFA_XSP16, literal(-10)))
        CFI (cfiCond9) VB load(1, XDATA, add(CFA_XSP16, literal(-9)))
        CFI (cfiCond9) V0 load(1, XDATA, add(CFA_XSP16, literal(-8)))
        CFI (cfiCond9) V1 load(1, XDATA, add(CFA_XSP16, literal(-7)))
        CFI (cfiCond9) R7 load(1, XDATA, add(CFA_XSP16, literal(-6)))
        CFI (cfiCond9) ?RET_LOW load(1, XDATA, add(CFA_XSP16, literal(-5)))
        CFI (cfiCond9) ?RET_HIGH load(1, XDATA, add(CFA_XSP16, literal(-4)))
        CFI (cfiCond9) ?BRET_EXT load(1, XDATA, add(CFA_XSP16, literal(-3)))
        CFI (cfiCond9) DPL0 load(1, XDATA, add(CFA_XSP16, literal(-2)))
        CFI (cfiCond9) DPH0 load(1, XDATA, add(CFA_XSP16, literal(-1)))
        CFI (cfiCond9) CFA_SP SP+0
        CFI (cfiCond9) CFA_XSP16 add(XSP16, 51)
        CFI Block cfiPicker10 Using cfiCommon1
        CFI (cfiPicker10) NoFunction
        CFI (cfiPicker10) Picker
        LCALL   ??AF_DataRequest?relay
        MOV     A,#0x9
        RET
        CFI EndBlock cfiCond6
        CFI EndBlock cfiCond7
        CFI EndBlock cfiCond8
        CFI EndBlock cfiCond9
        CFI EndBlock cfiPicker10

        RSEG BANKED_CODE:CODE:NOROOT(0)
?Subroutine2:
        CFI Block cfiCond11 Using cfiCommon0
        CFI NoFunction
        CFI Conditional ??CrossCallReturnLabel_7
        CFI R6 load(1, XDATA, add(CFA_XSP16, literal(-10)))
        CFI VB load(1, XDATA, add(CFA_XSP16, literal(-9)))
        CFI V0 load(1, XDATA, add(CFA_XSP16, literal(-8)))
        CFI V1 load(1, XDATA, add(CFA_XSP16, literal(-7)))
        CFI R7 load(1, XDATA, add(CFA_XSP16, literal(-6)))
        CFI ?RET_LOW load(1, XDATA, add(CFA_XSP16, literal(-5)))
        CFI ?RET_HIGH load(1, XDATA, add(CFA_XSP16, literal(-4)))
        CFI ?BRET_EXT load(1, XDATA, add(CFA_XSP16, literal(-3)))
        CFI DPL0 load(1, XDATA, add(CFA_XSP16, literal(-2)))
        CFI DPH0 load(1, XDATA, add(CFA_XSP16, literal(-1)))
        CFI CFA_SP SP+0
        CFI CFA_XSP16 add(XSP16, 42)
        CFI Block cfiCond12 Using cfiCommon0
        CFI (cfiCond12) NoFunction
        CFI (cfiCond12) Conditional ??CrossCallReturnLabel_8
        CFI (cfiCond12) R6 load(1, XDATA, add(CFA_XSP16, literal(-10)))
        CFI (cfiCond12) VB load(1, XDATA, add(CFA_XSP16, literal(-9)))
        CFI (cfiCond12) V0 load(1, XDATA, add(CFA_XSP16, literal(-8)))
        CFI (cfiCond12) V1 load(1, XDATA, add(CFA_XSP16, literal(-7)))
        CFI (cfiCond12) R7 load(1, XDATA, add(CFA_XSP16, literal(-6)))
        CFI (cfiCond12) ?RET_LOW load(1, XDATA, add(CFA_XSP16, literal(-5)))
        CFI (cfiCond12) ?RET_HIGH load(1, XDATA, add(CFA_XSP16, literal(-4)))
        CFI (cfiCond12) ?BRET_EXT load(1, XDATA, add(CFA_XSP16, literal(-3)))
        CFI (cfiCond12) DPL0 load(1, XDATA, add(CFA_XSP16, literal(-2)))
        CFI (cfiCond12) DPH0 load(1, XDATA, add(CFA_XSP16, literal(-1)))
        CFI (cfiCond12) CFA_SP SP+0
        CFI (cfiCond12) CFA_XSP16 add(XSP16, 42)
        CFI Block cfiCond13 Using cfiCommon0
        CFI (cfiCond13) NoFunction
        CFI (cfiCond13) Conditional ??CrossCallReturnLabel_9
        CFI (cfiCond13) R6 load(1, XDATA, add(CFA_XSP16, literal(-10)))
        CFI (cfiCond13) VB load(1, XDATA, add(CFA_XSP16, literal(-9)))
        CFI (cfiCond13) V0 load(1, XDATA, add(CFA_XSP16, literal(-8)))
        CFI (cfiCond13) V1 load(1, XDATA, add(CFA_XSP16, literal(-7)))
        CFI (cfiCond13) R7 load(1, XDATA, add(CFA_XSP16, literal(-6)))
        CFI (cfiCond13) ?RET_LOW load(1, XDATA, add(CFA_XSP16, literal(-5)))
        CFI (cfiCond13) ?RET_HIGH load(1, XDATA, add(CFA_XSP16, literal(-4)))
        CFI (cfiCond13) ?BRET_EXT load(1, XDATA, add(CFA_XSP16, literal(-3)))
        CFI (cfiCond13) DPL0 load(1, XDATA, add(CFA_XSP16, literal(-2)))
        CFI (cfiCond13) DPH0 load(1, XDATA, add(CFA_XSP16, literal(-1)))
        CFI (cfiCond13) CFA_SP SP+0
        CFI (cfiCond13) CFA_XSP16 add(XSP16, 42)
        CFI Block cfiPicker14 Using cfiCommon1
        CFI (cfiPicker14) NoFunction
        CFI (cfiPicker14) Picker
        MOV     A,#0x45
        CFI EndBlock cfiCond11
        CFI EndBlock cfiCond12
        CFI EndBlock cfiCond13
        CFI EndBlock cfiPicker14
        REQUIRE ??Subroutine5_0
        ; // Fall through to label ??Subroutine5_0

        RSEG BANKED_CODE:CODE:NOROOT(0)
??Subroutine5_0:
        CFI Block cfiCond15 Using cfiCommon0
        CFI NoFunction
        CFI Conditional ??CrossCallReturnLabel_10
        CFI R6 load(1, XDATA, add(CFA_XSP16, literal(-10)))
        CFI VB load(1, XDATA, add(CFA_XSP16, literal(-9)))
        CFI V0 load(1, XDATA, add(CFA_XSP16, literal(-8)))
        CFI V1 load(1, XDATA, add(CFA_XSP16, literal(-7)))
        CFI R7 load(1, XDATA, add(CFA_XSP16, literal(-6)))
        CFI ?RET_LOW load(1, XDATA, add(CFA_XSP16, literal(-5)))
        CFI ?RET_HIGH load(1, XDATA, add(CFA_XSP16, literal(-4)))
        CFI ?BRET_EXT load(1, XDATA, add(CFA_XSP16, literal(-3)))
        CFI DPL0 load(1, XDATA, add(CFA_XSP16, literal(-2)))
        CFI DPH0 load(1, XDATA, add(CFA_XSP16, literal(-1)))
        CFI CFA_SP SP+0
        CFI CFA_XSP16 add(XSP16, 13)
        CFI Block cfiCond16 Using cfiCommon0
        CFI (cfiCond16) NoFunction
        CFI (cfiCond16) Conditional ??CrossCallReturnLabel_7
        CFI (cfiCond16) R6 load(1, XDATA, add(CFA_XSP16, literal(-10)))
        CFI (cfiCond16) VB load(1, XDATA, add(CFA_XSP16, literal(-9)))
        CFI (cfiCond16) V0 load(1, XDATA, add(CFA_XSP16, literal(-8)))
        CFI (cfiCond16) V1 load(1, XDATA, add(CFA_XSP16, literal(-7)))
        CFI (cfiCond16) R7 load(1, XDATA, add(CFA_XSP16, literal(-6)))
        CFI (cfiCond16) ?RET_LOW load(1, XDATA, add(CFA_XSP16, literal(-5)))
        CFI (cfiCond16) ?RET_HIGH load(1, XDATA, add(CFA_XSP16, literal(-4)))
        CFI (cfiCond16) ?BRET_EXT load(1, XDATA, add(CFA_XSP16, literal(-3)))
        CFI (cfiCond16) DPL0 load(1, XDATA, add(CFA_XSP16, literal(-2)))
        CFI (cfiCond16) DPH0 load(1, XDATA, add(CFA_XSP16, literal(-1)))
        CFI (cfiCond16) CFA_SP SP+0
        CFI (cfiCond16) CFA_XSP16 add(XSP16, 42)
        CFI Block cfiCond17 Using cfiCommon0
        CFI (cfiCond17) NoFunction
        CFI (cfiCond17) Conditional ??CrossCallReturnLabel_8
        CFI (cfiCond17) R6 load(1, XDATA, add(CFA_XSP16, literal(-10)))
        CFI (cfiCond17) VB load(1, XDATA, add(CFA_XSP16, literal(-9)))
        CFI (cfiCond17) V0 load(1, XDATA, add(CFA_XSP16, literal(-8)))
        CFI (cfiCond17) V1 load(1, XDATA, add(CFA_XSP16, literal(-7)))
        CFI (cfiCond17) R7 load(1, XDATA, add(CFA_XSP16, literal(-6)))
        CFI (cfiCond17) ?RET_LOW load(1, XDATA, add(CFA_XSP16, literal(-5)))
        CFI (cfiCond17) ?RET_HIGH load(1, XDATA, add(CFA_XSP16, literal(-4)))
        CFI (cfiCond17) ?BRET_EXT load(1, XDATA, add(CFA_XSP16, literal(-3)))
        CFI (cfiCond17) DPL0 load(1, XDATA, add(CFA_XSP16, literal(-2)))
        CFI (cfiCond17) DPH0 load(1, XDATA, add(CFA_XSP16, literal(-1)))
        CFI (cfiCond17) CFA_SP SP+0
        CFI (cfiCond17) CFA_XSP16 add(XSP16, 42)
        CFI Block cfiCond18 Using cfiCommon0
        CFI (cfiCond18) NoFunction
        CFI (cfiCond18) Conditional ??CrossCallReturnLabel_9
        CFI (cfiCond18) R6 load(1, XDATA, add(CFA_XSP16, literal(-10)))
        CFI (cfiCond18) VB load(1, XDATA, add(CFA_XSP16, literal(-9)))
        CFI (cfiCond18) V0 load(1, XDATA, add(CFA_XSP16, literal(-8)))
        CFI (cfiCond18) V1 load(1, XDATA, add(CFA_XSP16, literal(-7)))
        CFI (cfiCond18) R7 load(1, XDATA, add(CFA_XSP16, literal(-6)))
        CFI (cfiCond18) ?RET_LOW load(1, XDATA, add(CFA_XSP16, literal(-5)))
        CFI (cfiCond18) ?RET_HIGH load(1, XDATA, add(CFA_XSP16, literal(-4)))
        CFI (cfiCond18) ?BRET_EXT load(1, XDATA, add(CFA_XSP16, literal(-3)))
        CFI (cfiCond18) DPL0 load(1, XDATA, add(CFA_XSP16, literal(-2)))
        CFI (cfiCond18) DPH0 load(1, XDATA, add(CFA_XSP16, literal(-1)))
        CFI (cfiCond18) CFA_SP SP+0
        CFI (cfiCond18) CFA_XSP16 add(XSP16, 42)
        CFI Block cfiPicker19 Using cfiCommon1
        CFI (cfiPicker19) NoFunction
        CFI (cfiPicker19) Picker
        MOVX    @DPTR,A
        ; Setup parameters for call to function AF_DataRequest
        ; Setup parameters for call to function AF_DataRequest
        ; Setup parameters for call to function AF_DataRequest
        ; Setup parameters for call to function AF_DataRequest
        MOV     ?V0 + 0,#0x1e
        MOV     R0,#?V0 + 0
        RET
        CFI EndBlock cfiCond15
        CFI EndBlock cfiCond16
        CFI EndBlock cfiCond17
        CFI EndBlock cfiCond18
        CFI EndBlock cfiPicker19
//  133 /**----------------------------------------------------------------*
//  134  * @函数    void sendmsg_temp_humi(void)
//  135  * @简介    发送温度和湿度（DHT11） 
//  136  * @端口    使用P0_6 
//  137  * @参数    none
//  138  * @返回值  none
//  139  *----------------------------------------------------------------*/
//  140 

        RSEG BANKED_CODE:CODE:NOROOT(0)
//  141 void sendmsg_temp_humi(void)
sendmsg_temp_humi:
        CFI Block cfiBlock20 Using cfiCommon0
        CFI Function sendmsg_temp_humi
        CODE
//  142 {
        FUNCALL sendmsg_temp_humi, DHT11
        LOCFRAME ISTACK, 0, STACK
        LOCFRAME PSTACK, 0, STACK
        LOCFRAME XSTACK, 42, STACK
        LOCFRAME IOVERLAY, 0, STATIC
        LOCFRAME DOVERLAY, 0, STATIC
        ARGFRAME ISTACK, 0, STACK
        ARGFRAME PSTACK, 0, STACK
        ARGFRAME XSTACK, 42, STACK
        ARGFRAME IOVERLAY, 0, STATIC
        ARGFRAME DOVERLAY, 0, STATIC
        FUNCALL sendmsg_temp_humi, AF_DataRequest
        LOCFRAME ISTACK, 0, STACK
        LOCFRAME PSTACK, 0, STACK
        LOCFRAME XSTACK, 51, STACK
        LOCFRAME IOVERLAY, 0, STATIC
        LOCFRAME DOVERLAY, 0, STATIC
        ARGFRAME ISTACK, 0, STACK
        ARGFRAME PSTACK, 0, STACK
        ARGFRAME XSTACK, 51, STACK
        ARGFRAME IOVERLAY, 0, STATIC
        ARGFRAME DOVERLAY, 0, STATIC
        FUNCALL sendmsg_temp_humi, HalUARTWrite
        LOCFRAME ISTACK, 0, STACK
        LOCFRAME PSTACK, 0, STACK
        LOCFRAME XSTACK, 42, STACK
        LOCFRAME IOVERLAY, 0, STATIC
        LOCFRAME DOVERLAY, 0, STATIC
        ARGFRAME ISTACK, 0, STACK
        ARGFRAME PSTACK, 0, STACK
        ARGFRAME XSTACK, 42, STACK
        ARGFRAME IOVERLAY, 0, STATIC
        ARGFRAME DOVERLAY, 0, STATIC
        FUNCALL sendmsg_temp_humi, AF_DataRequest
        LOCFRAME ISTACK, 0, STACK
        LOCFRAME PSTACK, 0, STACK
        LOCFRAME XSTACK, 51, STACK
        LOCFRAME IOVERLAY, 0, STATIC
        LOCFRAME DOVERLAY, 0, STATIC
        ARGFRAME ISTACK, 0, STACK
        ARGFRAME PSTACK, 0, STACK
        ARGFRAME XSTACK, 51, STACK
        ARGFRAME IOVERLAY, 0, STATIC
        ARGFRAME DOVERLAY, 0, STATIC
        FUNCALL sendmsg_temp_humi, HalUARTWrite
        LOCFRAME ISTACK, 0, STACK
        LOCFRAME PSTACK, 0, STACK
        LOCFRAME XSTACK, 42, STACK
        LOCFRAME IOVERLAY, 0, STATIC
        LOCFRAME DOVERLAY, 0, STATIC
        ARGFRAME ISTACK, 0, STACK
        ARGFRAME PSTACK, 0, STACK
        ARGFRAME XSTACK, 42, STACK
        ARGFRAME IOVERLAY, 0, STATIC
        ARGFRAME DOVERLAY, 0, STATIC
        MOV     A,#-0xa
        LCALL   ?BANKED_ENTER_XDATA
        CFI DPH0 load(1, XDATA, add(CFA_XSP16, literal(-1)))
        CFI DPL0 load(1, XDATA, add(CFA_XSP16, literal(-2)))
        CFI ?BRET_EXT load(1, XDATA, add(CFA_XSP16, literal(-3)))
        CFI ?RET_HIGH load(1, XDATA, add(CFA_XSP16, literal(-4)))
        CFI ?RET_LOW load(1, XDATA, add(CFA_XSP16, literal(-5)))
        CFI R7 load(1, XDATA, add(CFA_XSP16, literal(-6)))
        CFI V1 load(1, XDATA, add(CFA_XSP16, literal(-7)))
        CFI V0 load(1, XDATA, add(CFA_XSP16, literal(-8)))
        CFI VB load(1, XDATA, add(CFA_XSP16, literal(-9)))
        CFI R6 load(1, XDATA, add(CFA_XSP16, literal(-10)))
        CFI CFA_SP SP+0
        CFI CFA_XSP16 add(XSP16, 10)
        ; Saved register size: 10
        ; Auto size: 32
        MOV     A,#-0x20
        LCALL   ?ALLOC_XSTACK8
        CFI CFA_XSP16 add(XSP16, 42)
//  143   uint8 buffer[32];
//  144   /*----------------------------------- 
//  145    *  温度湿度检测将其放入缓冲区
//  146    *----------------------------------*/
//  147   DHT11();    //温度检测
        ; Setup parameters for call to function DHT11
        LCALL   ??DHT11?relay
//  148   buffer[0] = RES_TEMP;   //温度 
        MOV     DPL,?XSP + 0
        MOV     DPH,?XSP + 1
        MOV     A,#0x50
        MOVX    @DPTR,A
//  149   buffer[1] = 0; buffer[2] = 0; buffer[3] = 0; buffer[4] = 1; //4byte=32bit 唯一ID
        MOV     A,#0x1
        LCALL   ?XSTACK_DISP0_8
        CLR     A
        MOVX    @DPTR,A
        MOV     A,#0x2
        LCALL   ?XSTACK_DISP0_8
        CLR     A
        MOVX    @DPTR,A
        MOV     A,#0x3
        LCALL   ?XSTACK_DISP0_8
        CLR     A
        MOVX    @DPTR,A
        MOV     A,#0x4
        LCALL   ?XSTACK_DISP0_8
        MOV     A,#0x1
        MOVX    @DPTR,A
//  150   buffer[5] = CMD_SEP; 
        MOV     A,#0x5
        LCALL   ?XSTACK_DISP0_8
        MOV     A,#0x2f
        MOVX    @DPTR,A
//  151   buffer[6] = temp_decade + '0';
        MOV     DPTR,#temp_decade
        MOVX    A,@DPTR
        ADD     A,#0x30
        PUSH    A
        CFI CFA_SP SP+-1
        MOV     A,#0x6
        LCALL   ?XSTACK_DISP0_8
        POP     A
        CFI CFA_SP SP+0
        MOVX    @DPTR,A
//  152   buffer[7] = temp_unit   + '0';
        MOV     DPTR,#temp_unit
        MOVX    A,@DPTR
        ADD     A,#0x30
        PUSH    A
        CFI CFA_SP SP+-1
        MOV     A,#0x7
        LCALL   ?XSTACK_DISP0_8
        POP     A
        CFI CFA_SP SP+0
        MOVX    @DPTR,A
//  153   buffer[8]= CMD_END; 
        MOV     A,#0x8
        LCALL   ?XSTACK_DISP0_8
        LCALL   ?Subroutine2 & 0xFFFF
//  154   //将温度发送给节点
//  155   if ( AF_DataRequest( &SampleApp_Periodic_DstAddr, &SampleApp_epDesc,
//  156                        SAMPLEAPP_PERIODIC_CLUSTERID, //和主节点中SampleApp_MessageMSGCB的SAMPLEAPP_PERIODIC_CLUSTERID一致。
//  157                        9,//字节数
//  158                        buffer,//存放温度缓冲区
//  159                        &SampleApp_TransID,
//  160                        AF_DISCV_ROUTE,
//  161                        AF_DEFAULT_RADIUS ) == afStatus_SUCCESS )
??CrossCallReturnLabel_8:
        LCALL   ?PUSH_XSTACK_I_ONE
        CFI CFA_XSP16 add(XSP16, 43)
        MOV     ?V0 + 0,#SampleApp_TransID & 0xff
        MOV     ?V0 + 1,#(SampleApp_TransID >> 8) & 0xff
        MOV     R0,#?V0 + 0
        LCALL   ?PUSH_XSTACK_I_TWO
        CFI CFA_XSP16 add(XSP16, 45)
        MOV     A,#0x3
        LCALL   ?XSTACK_DISP0_8
        MOV     ?V0 + 0,DPL
        MOV     ?V0 + 1,DPH
        MOV     R0,#?V0 + 0
        LCALL   ?PUSH_XSTACK_I_TWO
        CFI CFA_XSP16 add(XSP16, 47)
        MOV     ?V0 + 0,#0x9
        MOV     ?V0 + 1,#0x0
        MOV     R0,#?V0 + 0
        LCALL   ?PUSH_XSTACK_I_TWO
        CFI CFA_XSP16 add(XSP16, 49)
        MOV     ?V0 + 0,#0x1
        MOV     R0,#?V0 + 0
        LCALL   ?PUSH_XSTACK_I_TWO
        CFI CFA_XSP16 add(XSP16, 51)
        LCALL   ?Subroutine3 & 0xFFFF
??CrossCallReturnLabel_4:
        LCALL   ?DEALLOC_XSTACK8
        CFI CFA_XSP16 add(XSP16, 42)
        MOV     A,R1
        JNZ     ??sendmsg_temp_humi_0
//  162   {
//  163       HalUARTWrite(0, "temp success\n", strlen("temp success\n")); //显示温度发送成功
        ; Setup parameters for call to function HalUARTWrite
        MOV     R4,#0xd
        MOV     R5,#0x0
        MOV     R2,#`?<Constant "temp success\\n">` & 0xff
        MOV     R3,#(`?<Constant "temp success\\n">` >> 8) & 0xff
        MOV     R1,#0x0
        LCALL   ??HalUARTWrite?relay
//  164   }
//  165   else{// Error occurred in request to send.
//  166   }
//  167 
//  168   buffer[0] = RES_HUMI;   //湿度 
??sendmsg_temp_humi_0:
        MOV     DPL,?XSP + 0
        MOV     DPH,?XSP + 1
        MOV     A,#0x48
        MOVX    @DPTR,A
//  169   buffer[1] = 0; buffer[2] = 0; buffer[3] = 0; buffer[4] = 1;//4byte=32bit 唯一ID(1)
        MOV     A,#0x1
        LCALL   ?XSTACK_DISP0_8
        CLR     A
        MOVX    @DPTR,A
        MOV     A,#0x2
        LCALL   ?XSTACK_DISP0_8
        CLR     A
        MOVX    @DPTR,A
        MOV     A,#0x3
        LCALL   ?XSTACK_DISP0_8
        CLR     A
        MOVX    @DPTR,A
        MOV     A,#0x4
        LCALL   ?XSTACK_DISP0_8
        MOV     A,#0x1
        MOVX    @DPTR,A
//  170   buffer[5] = CMD_SEP; 
        MOV     A,#0x5
        LCALL   ?XSTACK_DISP0_8
        MOV     A,#0x2f
        MOVX    @DPTR,A
//  171   buffer[6] = humi_decade + '0';
        MOV     DPTR,#humi_decade
        MOVX    A,@DPTR
        ADD     A,#0x30
        PUSH    A
        CFI CFA_SP SP+-1
        MOV     A,#0x6
        LCALL   ?XSTACK_DISP0_8
        POP     A
        CFI CFA_SP SP+0
        MOVX    @DPTR,A
//  172   buffer[7] = humi_unit   + '0';
        MOV     DPTR,#humi_unit
        MOVX    A,@DPTR
        ADD     A,#0x30
        PUSH    A
        CFI CFA_SP SP+-1
        MOV     A,#0x7
        LCALL   ?XSTACK_DISP0_8
        POP     A
        CFI CFA_SP SP+0
        MOVX    @DPTR,A
//  173   buffer[8] = CMD_END; 
        MOV     A,#0x8
        LCALL   ?XSTACK_DISP0_8
        LCALL   ?Subroutine2 & 0xFFFF
//  174   //将湿度发送给节点
//  175   if ( AF_DataRequest( &SampleApp_Periodic_DstAddr, &SampleApp_epDesc,SAMPLEAPP_PERIODIC_CLUSTERID, 9,buffer,&SampleApp_TransID,AF_DISCV_ROUTE,AF_DEFAULT_RADIUS ) 
//  176                              == afStatus_SUCCESS )
??CrossCallReturnLabel_9:
        LCALL   ?PUSH_XSTACK_I_ONE
        CFI CFA_XSP16 add(XSP16, 43)
        MOV     ?V0 + 0,#SampleApp_TransID & 0xff
        MOV     ?V0 + 1,#(SampleApp_TransID >> 8) & 0xff
        MOV     R0,#?V0 + 0
        LCALL   ?PUSH_XSTACK_I_TWO
        CFI CFA_XSP16 add(XSP16, 45)
        MOV     A,#0x3
        LCALL   ?XSTACK_DISP0_8
        MOV     ?V0 + 0,DPL
        MOV     ?V0 + 1,DPH
        MOV     R0,#?V0 + 0
        LCALL   ?PUSH_XSTACK_I_TWO
        CFI CFA_XSP16 add(XSP16, 47)
        MOV     ?V0 + 0,#0x9
        MOV     ?V0 + 1,#0x0
        MOV     R0,#?V0 + 0
        LCALL   ?PUSH_XSTACK_I_TWO
        CFI CFA_XSP16 add(XSP16, 49)
        MOV     ?V0 + 0,#0x1
        MOV     R0,#?V0 + 0
        LCALL   ?PUSH_XSTACK_I_TWO
        CFI CFA_XSP16 add(XSP16, 51)
        LCALL   ?Subroutine3 & 0xFFFF
??CrossCallReturnLabel_5:
        LCALL   ?DEALLOC_XSTACK8
        CFI CFA_XSP16 add(XSP16, 42)
        MOV     A,R1
        JNZ     ??sendmsg_temp_humi_1
//  177   {
//  178       HalUARTWrite(0, "humi success\n", strlen("humi success\n")); //显示温度发送成功
        ; Setup parameters for call to function HalUARTWrite
        MOV     R4,#0xd
        MOV     R5,#0x0
        MOV     R2,#`?<Constant "humi success\\n">` & 0xff
        MOV     R3,#(`?<Constant "humi success\\n">` >> 8) & 0xff
        MOV     R1,#0x0
        LCALL   ??HalUARTWrite?relay
//  179   }
//  180   else{// Error occurred in request to send.
//  181   }
//  182 
//  183 }
??sendmsg_temp_humi_1:
        LJMP    ?Subroutine0 & 0xFFFF
        CFI EndBlock cfiBlock20
//  184 
//  185 /**-----------------------------------------------------------------------------
//  186  * @fn      SampleApp_MessageMSGCB
//  187  * @brief   数据信息处理器的回调函数。该函数处理任何进来的数据（可能来自与其他设备）
//  188  *          因此，依赖于cluster ID(簇ID)，进行相应的操作
//  189  * @param   none
//  190  * @return  none
//  191  *---------------------------------------------------------------------------*/

        RSEG BANKED_CODE:CODE:NOROOT(0)
//  192 void SampleApp_MessageMSGCB( afIncomingMSGPacket_t *pkt )
SampleApp_MessageMSGCB:
        CFI Block cfiBlock21 Using cfiCommon0
        CFI Function SampleApp_MessageMSGCB
        CODE
//  193 {
        FUNCALL SampleApp_MessageMSGCB, HalUARTWrite
        LOCFRAME ISTACK, 0, STACK
        LOCFRAME PSTACK, 0, STACK
        LOCFRAME XSTACK, 10, STACK
        LOCFRAME IOVERLAY, 0, STATIC
        LOCFRAME DOVERLAY, 0, STATIC
        ARGFRAME ISTACK, 0, STACK
        ARGFRAME PSTACK, 0, STACK
        ARGFRAME XSTACK, 10, STACK
        ARGFRAME IOVERLAY, 0, STATIC
        ARGFRAME DOVERLAY, 0, STATIC
        FUNCALL SampleApp_MessageMSGCB, HalLedBlink
        LOCFRAME ISTACK, 0, STACK
        LOCFRAME PSTACK, 0, STACK
        LOCFRAME XSTACK, 10, STACK
        LOCFRAME IOVERLAY, 0, STATIC
        LOCFRAME DOVERLAY, 0, STATIC
        ARGFRAME ISTACK, 0, STACK
        ARGFRAME PSTACK, 0, STACK
        ARGFRAME XSTACK, 10, STACK
        ARGFRAME IOVERLAY, 0, STATIC
        ARGFRAME DOVERLAY, 0, STATIC
        MOV     A,#-0xa
        LCALL   ?BANKED_ENTER_XDATA
        CFI DPH0 load(1, XDATA, add(CFA_XSP16, literal(-1)))
        CFI DPL0 load(1, XDATA, add(CFA_XSP16, literal(-2)))
        CFI ?BRET_EXT load(1, XDATA, add(CFA_XSP16, literal(-3)))
        CFI ?RET_HIGH load(1, XDATA, add(CFA_XSP16, literal(-4)))
        CFI ?RET_LOW load(1, XDATA, add(CFA_XSP16, literal(-5)))
        CFI R7 load(1, XDATA, add(CFA_XSP16, literal(-6)))
        CFI V1 load(1, XDATA, add(CFA_XSP16, literal(-7)))
        CFI V0 load(1, XDATA, add(CFA_XSP16, literal(-8)))
        CFI VB load(1, XDATA, add(CFA_XSP16, literal(-9)))
        CFI R6 load(1, XDATA, add(CFA_XSP16, literal(-10)))
        CFI CFA_SP SP+0
        CFI CFA_XSP16 add(XSP16, 10)
        ; Saved register size: 10
        ; Auto size: 0
//  194   int i;
//  195   uint16 flashTime;
//  196   uint8 buffer[64];
//  197 
//  198   switch ( pkt->clusterId )
        MOV     DPL,R2
        MOV     DPH,R3
        INC     DPTR
        INC     DPTR
        INC     DPTR
        INC     DPTR
        MOVX    A,@DPTR
        MOV     ?V0 + 0,A
        INC     DPTR
        MOVX    A,@DPTR
        MOV     ?V0 + 1,A
        MOV     R0,#?V0 + 0
        LCALL   ?US_SWITCH_DENSE
`?<Jumptable for SampleApp_MessageMSGCB>_0`:
        DATA
        DATA16
        DATA
        DATA16
        DW        1
        DATA
        DATA8
        DATA
        DATA8
        DB        1
        DATA
        DATA16
        DATA
        DATA16
        DW        ??SampleApp_MessageMSGCB_0
        DATA
        DATA16
        DATA
        DATA16
        DW        ??SampleApp_MessageMSGCB_1
        DATA
        DATA16
        DATA
        DATA16
        DW        ??SampleApp_MessageMSGCB_2
        CODE
//  199   {
//  200     case SAMPLEAPP_PERIODIC_CLUSTERID: //接到SAMPLEAPP_PERIODIC_CLUSTERID的数据
//  201       {
//  202           for (i = 0; i < 32; i++) {
??SampleApp_MessageMSGCB_1:
        MOV     R0,#0x0
        MOV     R1,#0x0
//  203               if (pkt->cmd.Data[i] == CMD_END)  //找到一条指令，则将该指令(0~i+1之间的字符串)发送出去
??SampleApp_MessageMSGCB_3:
        LCALL   ?Subroutine1 & 0xFFFF
??CrossCallReturnLabel_0:
        ADD     A,R0
        MOV     R4,A
        INC     DPTR
        MOVX    A,@DPTR
        ADDC    A,R1
        MOV     DPL,R4
        MOV     DPH,A
        MOVX    A,@DPTR
        XRL     A,#0x45
        JNZ     ??SampleApp_MessageMSGCB_4
//  204               {
//  205                   HalUARTWrite(0, &pkt->cmd.Data[0], i+1); //打印收到数据(数量为end-start+1)
        ; Setup parameters for call to function HalUARTWrite
        MOV     A,R0
        ADD     A,#0x1
        MOV     R4,A
        MOV     A,R1
        ADDC    A,#0x0
        MOV     R5,A
        LCALL   ?Subroutine1 & 0xFFFF
??CrossCallReturnLabel_1:
        MOV     R2,A
        INC     DPTR
        MOVX    A,@DPTR
        MOV     R3,A
        MOV     R1,#0x0
        LCALL   ??HalUARTWrite?relay
//  206                   break;
        SJMP    ??SampleApp_MessageMSGCB_0
//  207               }
//  208           }
??SampleApp_MessageMSGCB_4:
        MOV     A,R0
        ADD     A,#0x1
        INC     R0
        MOV     A,R1
        ADDC    A,#0x0
        MOV     R1,A
        CLR     C
        MOV     A,R0
        SUBB    A,#0x20
        MOV     A,R1
        SUBB    A,#0x0
        MOV     C,0xD0 /* PSW */.2
        XRL     A,PSW
        RLC     A
        JNC     ??SampleApp_MessageMSGCB_0
        SJMP    ??SampleApp_MessageMSGCB_3
//  209       }
//  210       break;
//  211 
//  212     case SAMPLEAPP_FLASH_CLUSTERID:
//  213       flashTime = BUILD_UINT16(pkt->cmd.Data[1], pkt->cmd.Data[2] );
//  214       HalLedBlink( HAL_LED_4, 4, 50, (flashTime / 4) );
??SampleApp_MessageMSGCB_2:
        LCALL   ?Subroutine1 & 0xFFFF
??CrossCallReturnLabel_2:
        MOV     R0,A
        INC     DPTR
        MOVX    A,@DPTR
        MOV     R1,A
        ; Setup parameters for call to function HalLedBlink
        MOV     DPL,R0
        MOV     DPH,R1
        INC     DPTR
        MOVX    A,@DPTR
        MOV     R2,A
        MOV     DPL,R0
        MOV     DPH,R1
        INC     DPTR
        INC     DPTR
        MOVX    A,@DPTR
        MOV     R1,A
        MOV     A,R2
        ADD     A,#0x0
        MOV     ?V0 + 0,A
        CLR     A
        ADDC    A,R1
        MOV     ?V0 + 1,A
        MOV     A,#0x2
        MOV     R0,#?V0 + 0
        LCALL   ?US_SHR
        MOV     R4,?V0 + 0
        MOV     R5,?V0 + 1
        MOV     R3,#0x32
        MOV     R2,#0x4
        MOV     R1,#0x8
        LCALL   ??HalLedBlink?relay
//  215       break;
//  216   }
//  217 }
??SampleApp_MessageMSGCB_0:
        LJMP    ??Subroutine7_0 & 0xFFFF
        CFI EndBlock cfiBlock21

        RSEG BANKED_CODE:CODE:NOROOT(0)
?Subroutine1:
        CFI Block cfiCond22 Using cfiCommon0
        CFI NoFunction
        CFI Conditional ??CrossCallReturnLabel_0
        CFI R6 load(1, XDATA, add(CFA_XSP16, literal(-10)))
        CFI VB load(1, XDATA, add(CFA_XSP16, literal(-9)))
        CFI V0 load(1, XDATA, add(CFA_XSP16, literal(-8)))
        CFI V1 load(1, XDATA, add(CFA_XSP16, literal(-7)))
        CFI R7 load(1, XDATA, add(CFA_XSP16, literal(-6)))
        CFI ?RET_LOW load(1, XDATA, add(CFA_XSP16, literal(-5)))
        CFI ?RET_HIGH load(1, XDATA, add(CFA_XSP16, literal(-4)))
        CFI ?BRET_EXT load(1, XDATA, add(CFA_XSP16, literal(-3)))
        CFI DPL0 load(1, XDATA, add(CFA_XSP16, literal(-2)))
        CFI DPH0 load(1, XDATA, add(CFA_XSP16, literal(-1)))
        CFI CFA_SP SP+0
        CFI CFA_XSP16 add(XSP16, 10)
        CFI Block cfiCond23 Using cfiCommon0
        CFI (cfiCond23) NoFunction
        CFI (cfiCond23) Conditional ??CrossCallReturnLabel_1
        CFI (cfiCond23) R6 load(1, XDATA, add(CFA_XSP16, literal(-10)))
        CFI (cfiCond23) VB load(1, XDATA, add(CFA_XSP16, literal(-9)))
        CFI (cfiCond23) V0 load(1, XDATA, add(CFA_XSP16, literal(-8)))
        CFI (cfiCond23) V1 load(1, XDATA, add(CFA_XSP16, literal(-7)))
        CFI (cfiCond23) R7 load(1, XDATA, add(CFA_XSP16, literal(-6)))
        CFI (cfiCond23) ?RET_LOW load(1, XDATA, add(CFA_XSP16, literal(-5)))
        CFI (cfiCond23) ?RET_HIGH load(1, XDATA, add(CFA_XSP16, literal(-4)))
        CFI (cfiCond23) ?BRET_EXT load(1, XDATA, add(CFA_XSP16, literal(-3)))
        CFI (cfiCond23) DPL0 load(1, XDATA, add(CFA_XSP16, literal(-2)))
        CFI (cfiCond23) DPH0 load(1, XDATA, add(CFA_XSP16, literal(-1)))
        CFI (cfiCond23) CFA_SP SP+0
        CFI (cfiCond23) CFA_XSP16 add(XSP16, 10)
        CFI Block cfiCond24 Using cfiCommon0
        CFI (cfiCond24) NoFunction
        CFI (cfiCond24) Conditional ??CrossCallReturnLabel_2
        CFI (cfiCond24) R6 load(1, XDATA, add(CFA_XSP16, literal(-10)))
        CFI (cfiCond24) VB load(1, XDATA, add(CFA_XSP16, literal(-9)))
        CFI (cfiCond24) V0 load(1, XDATA, add(CFA_XSP16, literal(-8)))
        CFI (cfiCond24) V1 load(1, XDATA, add(CFA_XSP16, literal(-7)))
        CFI (cfiCond24) R7 load(1, XDATA, add(CFA_XSP16, literal(-6)))
        CFI (cfiCond24) ?RET_LOW load(1, XDATA, add(CFA_XSP16, literal(-5)))
        CFI (cfiCond24) ?RET_HIGH load(1, XDATA, add(CFA_XSP16, literal(-4)))
        CFI (cfiCond24) ?BRET_EXT load(1, XDATA, add(CFA_XSP16, literal(-3)))
        CFI (cfiCond24) DPL0 load(1, XDATA, add(CFA_XSP16, literal(-2)))
        CFI (cfiCond24) DPH0 load(1, XDATA, add(CFA_XSP16, literal(-1)))
        CFI (cfiCond24) CFA_SP SP+0
        CFI (cfiCond24) CFA_XSP16 add(XSP16, 10)
        CFI Block cfiPicker25 Using cfiCommon1
        CFI (cfiPicker25) NoFunction
        CFI (cfiPicker25) Picker
        MOV     A,R2
        ADD     A,#0x22
        MOV     DPL,A
        MOV     A,R3
        ADDC    A,#0x0
        MOV     DPH,A
        MOVX    A,@DPTR
        RET
        CFI EndBlock cfiCond22
        CFI EndBlock cfiCond23
        CFI EndBlock cfiCond24
        CFI EndBlock cfiPicker25
//  218 
//  219 /**-----------------------------------------------------------------------------------------------
//  220  * @fn      SampleApp_Init
//  221  * @brief   通用APP任务的初始化函数。该函数在初始化程序和任何需要包含应用相关的初始化程序期间被调用。
//  222  *         （例如：硬件初始化程序，table初始化，power up（上电）通知等）
//  223  * @param   task_id - OSAL分配的ID。该ID需要被用于发送信息和设置定时器。
//  224  * @return  none
//  225  */

        RSEG BANKED_CODE:CODE:NOROOT(0)
//  226 void SampleApp_Init( uint8 task_id )
SampleApp_Init:
        CFI Block cfiBlock26 Using cfiCommon0
        CFI Function SampleApp_Init
        CODE
//  227 {
        FUNCALL SampleApp_Init, MT_UartInit
        LOCFRAME ISTACK, 0, STACK
        LOCFRAME PSTACK, 0, STACK
        LOCFRAME XSTACK, 11, STACK
        LOCFRAME IOVERLAY, 0, STATIC
        LOCFRAME DOVERLAY, 0, STATIC
        ARGFRAME ISTACK, 0, STACK
        ARGFRAME PSTACK, 0, STACK
        ARGFRAME XSTACK, 11, STACK
        ARGFRAME IOVERLAY, 0, STATIC
        ARGFRAME DOVERLAY, 0, STATIC
        FUNCALL SampleApp_Init, MT_UartRegisterTaskID
        LOCFRAME ISTACK, 0, STACK
        LOCFRAME PSTACK, 0, STACK
        LOCFRAME XSTACK, 11, STACK
        LOCFRAME IOVERLAY, 0, STATIC
        LOCFRAME DOVERLAY, 0, STATIC
        ARGFRAME ISTACK, 0, STACK
        ARGFRAME PSTACK, 0, STACK
        ARGFRAME XSTACK, 11, STACK
        ARGFRAME IOVERLAY, 0, STATIC
        ARGFRAME DOVERLAY, 0, STATIC
        FUNCALL SampleApp_Init, HalUARTWrite
        LOCFRAME ISTACK, 0, STACK
        LOCFRAME PSTACK, 0, STACK
        LOCFRAME XSTACK, 11, STACK
        LOCFRAME IOVERLAY, 0, STATIC
        LOCFRAME DOVERLAY, 0, STATIC
        ARGFRAME ISTACK, 0, STACK
        ARGFRAME PSTACK, 0, STACK
        ARGFRAME XSTACK, 11, STACK
        ARGFRAME IOVERLAY, 0, STATIC
        ARGFRAME DOVERLAY, 0, STATIC
        FUNCALL SampleApp_Init, afRegister
        LOCFRAME ISTACK, 0, STACK
        LOCFRAME PSTACK, 0, STACK
        LOCFRAME XSTACK, 11, STACK
        LOCFRAME IOVERLAY, 0, STATIC
        LOCFRAME DOVERLAY, 0, STATIC
        ARGFRAME ISTACK, 0, STACK
        ARGFRAME PSTACK, 0, STACK
        ARGFRAME XSTACK, 11, STACK
        ARGFRAME IOVERLAY, 0, STATIC
        ARGFRAME DOVERLAY, 0, STATIC
        FUNCALL SampleApp_Init, RegisterForKeys
        LOCFRAME ISTACK, 0, STACK
        LOCFRAME PSTACK, 0, STACK
        LOCFRAME XSTACK, 11, STACK
        LOCFRAME IOVERLAY, 0, STATIC
        LOCFRAME DOVERLAY, 0, STATIC
        ARGFRAME ISTACK, 0, STACK
        ARGFRAME PSTACK, 0, STACK
        ARGFRAME XSTACK, 11, STACK
        ARGFRAME IOVERLAY, 0, STATIC
        ARGFRAME DOVERLAY, 0, STATIC
        FUNCALL SampleApp_Init, osal_memcpy
        LOCFRAME ISTACK, 0, STACK
        LOCFRAME PSTACK, 0, STACK
        LOCFRAME XSTACK, 14, STACK
        LOCFRAME IOVERLAY, 0, STATIC
        LOCFRAME DOVERLAY, 0, STATIC
        ARGFRAME ISTACK, 0, STACK
        ARGFRAME PSTACK, 0, STACK
        ARGFRAME XSTACK, 14, STACK
        ARGFRAME IOVERLAY, 0, STATIC
        ARGFRAME DOVERLAY, 0, STATIC
        FUNCALL SampleApp_Init, aps_AddGroup
        LOCFRAME ISTACK, 0, STACK
        LOCFRAME PSTACK, 0, STACK
        LOCFRAME XSTACK, 11, STACK
        LOCFRAME IOVERLAY, 0, STATIC
        LOCFRAME DOVERLAY, 0, STATIC
        ARGFRAME ISTACK, 0, STACK
        ARGFRAME PSTACK, 0, STACK
        ARGFRAME XSTACK, 11, STACK
        ARGFRAME IOVERLAY, 0, STATIC
        ARGFRAME DOVERLAY, 0, STATIC
        FUNCALL SampleApp_Init, HalLcdWriteString
        LOCFRAME ISTACK, 0, STACK
        LOCFRAME PSTACK, 0, STACK
        LOCFRAME XSTACK, 11, STACK
        LOCFRAME IOVERLAY, 0, STATIC
        LOCFRAME DOVERLAY, 0, STATIC
        ARGFRAME ISTACK, 0, STACK
        ARGFRAME PSTACK, 0, STACK
        ARGFRAME XSTACK, 11, STACK
        ARGFRAME IOVERLAY, 0, STATIC
        ARGFRAME DOVERLAY, 0, STATIC
        MOV     A,#-0xb
        LCALL   ?BANKED_ENTER_XDATA
        CFI DPH0 load(1, XDATA, add(CFA_XSP16, literal(-1)))
        CFI DPL0 load(1, XDATA, add(CFA_XSP16, literal(-2)))
        CFI ?BRET_EXT load(1, XDATA, add(CFA_XSP16, literal(-3)))
        CFI ?RET_HIGH load(1, XDATA, add(CFA_XSP16, literal(-4)))
        CFI ?RET_LOW load(1, XDATA, add(CFA_XSP16, literal(-5)))
        CFI R7 load(1, XDATA, add(CFA_XSP16, literal(-6)))
        CFI V2 load(1, XDATA, add(CFA_XSP16, literal(-7)))
        CFI V1 load(1, XDATA, add(CFA_XSP16, literal(-8)))
        CFI V0 load(1, XDATA, add(CFA_XSP16, literal(-9)))
        CFI VB load(1, XDATA, add(CFA_XSP16, literal(-10)))
        CFI R6 load(1, XDATA, add(CFA_XSP16, literal(-11)))
        CFI CFA_SP SP+0
        CFI CFA_XSP16 add(XSP16, 11)
        ; Saved register size: 11
        ; Auto size: 0
        MOV     A,R1
        MOV     R6,A
//  228   SampleApp_TaskID = task_id;
        MOV     DPTR,#SampleApp_TaskID
        MOVX    @DPTR,A
//  229   SampleApp_NwkState = DEV_INIT;
        MOV     DPTR,#SampleApp_NwkState
        MOV     A,#0x1
        MOVX    @DPTR,A
//  230   SampleApp_TransID = 0;
        MOV     DPTR,#SampleApp_TransID
        CLR     A
        MOVX    @DPTR,A
//  231   
//  232   MT_UartInit();//串口初始化
        ; Setup parameters for call to function MT_UartInit
        LCALL   ??MT_UartInit?relay
//  233   MT_UartRegisterTaskID(task_id);//登记任务号
        ; Setup parameters for call to function MT_UartRegisterTaskID
        MOV     A,R6
        MOV     R1,A
        LCALL   ??MT_UartRegisterTaskID?relay
//  234   HalUARTWrite(0,"Hello IGreen\n",12); //（串口0，'字符'，字符个数。）
        ; Setup parameters for call to function HalUARTWrite
        MOV     R4,#0xc
        MOV     R5,#0x0
        MOV     R2,#`?<Constant "Hello IGreen\\n">` & 0xff
        MOV     R3,#(`?<Constant "Hello IGreen\\n">` >> 8) & 0xff
        MOV     R1,#0x0
        LCALL   ??HalUARTWrite?relay
//  235   
//  236   /*------------------------------------------ 
//  237    *        引脚初始化
//  238    *------------------------------------------*/
//  239 //  P1DIR |= 0x010 ; //P1_0  定义为输出   湿度传感器
//  240 //  P1INP |= 0X01;   // 打开下拉
//  241   
//  242 //  P2SEL &= ~0X01;  // 设置 0 P20  为普通 O IO  口
//  243 //  P2DIR &= ~0X01;  // 在 在 0 P20  口，设置为输入模式
//  244 //  P2INP &= ~0x01;  // 打开 0 P20  上拉电阻, , 不影响
//  245   
//  246   P0SEL &= 0xbf;   //DS18B20/DHT11 IO口初始化
        ANL     0xf3,#0xbf
//  247   
//  248   // Device hardware initialization can be added here or in main() (Zmain.c).
//  249   // If the hardware is application specific - add it here.
//  250   // If the hardware is other parts of the device add it in main().
//  251 
//  252  #if defined ( BUILD_ALL_DEVICES )
//  253   // The "Demo" target is setup to have BUILD_ALL_DEVICES and HOLD_AUTO_START
//  254   // We are looking at a jumper (defined in SampleAppHw.c) to be jumpered
//  255   // together - if they are - we will start up a coordinator. Otherwise,
//  256   // the device will start as a router.
//  257   if ( readCoordinatorJumper() )
//  258     zgDeviceLogicalType = ZG_DEVICETYPE_COORDINATOR;
//  259   else
//  260     zgDeviceLogicalType = ZG_DEVICETYPE_ROUTER;
//  261 #endif // BUILD_ALL_DEVICES
//  262 
//  263 #if defined ( HOLD_AUTO_START )
//  264   // HOLD_AUTO_START is a compile option that will surpress ZDApp
//  265   //  from starting the device and wait for the application to
//  266   //  start the device.
//  267   ZDOInitDevice(0);
//  268 #endif
//  269 
//  270   // Setup for the periodic message's destination address
//  271   // Broadcast to everyone
//  272   SampleApp_Periodic_DstAddr.addrMode = (afAddrMode_t)AddrBroadcast;
        MOV     DPTR,#SampleApp_Periodic_DstAddr + 8
        MOV     A,#0xf
        MOVX    @DPTR,A
//  273   SampleApp_Periodic_DstAddr.endPoint = SAMPLEAPP_ENDPOINT;
        INC     DPTR
        MOV     A,#0x14
        MOVX    @DPTR,A
//  274   SampleApp_Periodic_DstAddr.addr.shortAddr = 0xFFFF;//数据包发送到网络上所有设备
        MOV     DPTR,#SampleApp_Periodic_DstAddr
        MOV     A,#-0x1
        MOVX    @DPTR,A
        INC     DPTR
        MOVX    @DPTR,A
//  275 
//  276   // Setup for the flash command's destination address - Group 1
//  277   SampleApp_Flash_DstAddr.addrMode = (afAddrMode_t)afAddrGroup;
        MOV     DPTR,#SampleApp_Flash_DstAddr + 8
        MOV     A,#0x1
        MOVX    @DPTR,A
//  278   SampleApp_Flash_DstAddr.endPoint = SAMPLEAPP_ENDPOINT;
        INC     DPTR
        MOV     A,#0x14
        MOVX    @DPTR,A
//  279   SampleApp_Flash_DstAddr.addr.shortAddr = SAMPLEAPP_FLASH_GROUP;
        MOV     DPTR,#SampleApp_Flash_DstAddr
        MOV     A,#0x1
        MOVX    @DPTR,A
        INC     DPTR
        CLR     A
        MOVX    @DPTR,A
//  280 
//  281   // Fill out the endpoint description.
//  282   SampleApp_epDesc.endPoint = SAMPLEAPP_ENDPOINT;
        MOV     DPTR,#SampleApp_epDesc
        MOV     A,#0x14
        MOVX    @DPTR,A
//  283   SampleApp_epDesc.task_id = &SampleApp_TaskID;
        INC     DPTR
        MOV     A,#SampleApp_TaskID & 0xff
        MOVX    @DPTR,A
        INC     DPTR
        MOV     A,#(SampleApp_TaskID >> 8) & 0xff
        MOVX    @DPTR,A
//  284   SampleApp_epDesc.simpleDesc
//  285             = (SimpleDescriptionFormat_t *)&SampleApp_SimpleDesc;
        INC     DPTR
        MOV     A,#SampleApp_SimpleDesc & 0xff
        MOVX    @DPTR,A
        INC     DPTR
        MOV     A,#(SampleApp_SimpleDesc >> 8) & 0xff
        MOVX    @DPTR,A
//  286   SampleApp_epDesc.latencyReq = noLatencyReqs;
        INC     DPTR
        CLR     A
        MOVX    @DPTR,A
//  287 
//  288   // Register the endpoint description with the AF
//  289   afRegister( &SampleApp_epDesc );
        ; Setup parameters for call to function afRegister
        MOV     R2,#SampleApp_epDesc & 0xff
        MOV     R3,#(SampleApp_epDesc >> 8) & 0xff
        LCALL   ??afRegister?relay
//  290 
//  291   // Register for all key events - This app will handle all key events
//  292   RegisterForKeys( SampleApp_TaskID );
        ; Setup parameters for call to function RegisterForKeys
        MOV     DPTR,#SampleApp_TaskID
        MOVX    A,@DPTR
        MOV     R1,A
        LCALL   ??RegisterForKeys?relay
//  293 
//  294   // By default, all devices start out in Group 1
//  295   SampleApp_Group.ID = 0x0001;
        MOV     DPTR,#SampleApp_Group
        MOV     A,#0x1
        MOVX    @DPTR,A
        INC     DPTR
        CLR     A
        MOVX    @DPTR,A
//  296   osal_memcpy( SampleApp_Group.name, "Group 1", 7  );
        ; Setup parameters for call to function osal_memcpy
        MOV     ?V0 + 0,#`?<Constant "Group 1">` & 0xff
        MOV     ?V0 + 1,#(`?<Constant "Group 1">` >> 8) & 0xff
        MOV     ?V0 + 2,A
        MOV     R0,#?V0 + 0
        LCALL   ?PUSH_XSTACK_I_THREE
        CFI CFA_XSP16 add(XSP16, 14)
        MOV     R4,#0x7
        MOV     R5,#0x0
        MOV     R2,#(SampleApp_Group + 2) & 0xff
        MOV     R3,#((SampleApp_Group + 2) >> 8) & 0xff
        LCALL   ??osal_memcpy?relay
        MOV     A,#0x3
        LCALL   ?DEALLOC_XSTACK8
        CFI CFA_XSP16 add(XSP16, 11)
//  297   aps_AddGroup( SAMPLEAPP_ENDPOINT, &SampleApp_Group );
        ; Setup parameters for call to function aps_AddGroup
        MOV     R2,#SampleApp_Group & 0xff
        MOV     R3,#(SampleApp_Group >> 8) & 0xff
        MOV     R1,#0x14
        LCALL   ??aps_AddGroup?relay
//  298 
//  299 #if defined ( LCD_SUPPORTED )
//  300   HalLcdWriteString( "SampleApp", HAL_LCD_LINE_1 );
        ; Setup parameters for call to function HalLcdWriteString
        MOV     R1,#0x1
        MOV     R2,#`?<Constant "SampleApp">` & 0xff
        MOV     R3,#(`?<Constant "SampleApp">` >> 8) & 0xff
        LCALL   ??HalLcdWriteString?relay
//  301 #endif
//  302 }
        MOV     R7,#0x3
        LJMP    ?BANKED_LEAVE_XDATA
        CFI EndBlock cfiBlock26
        REQUIRE P0SEL
//  303 
//  304 /*********************************************************************
//  305  * @fn      SampleApp_ProcessEvent
//  306  *
//  307  * @brief   Generic Application Task event processor.  This function
//  308  *          is called to process all events for the task.  Events
//  309  *          include timers, messages and any other user defined events.
//  310  *
//  311  * @param   task_id  - The OSAL assigned task ID.
//  312  * @param   events - events to process.  This is a bit map and can
//  313  *                   contain more than one event.
//  314  *
//  315  * @return  none
//  316  */

        RSEG BANKED_CODE:CODE:NOROOT(0)
//  317 uint16 SampleApp_ProcessEvent( uint8 task_id, uint16 events )
SampleApp_ProcessEvent:
        CFI Block cfiBlock27 Using cfiCommon0
        CFI Function SampleApp_ProcessEvent
        CODE
//  318 {
        FUNCALL SampleApp_ProcessEvent, osal_msg_receive
        LOCFRAME ISTACK, 0, STACK
        LOCFRAME PSTACK, 0, STACK
        LOCFRAME XSTACK, 12, STACK
        LOCFRAME IOVERLAY, 0, STATIC
        LOCFRAME DOVERLAY, 0, STATIC
        ARGFRAME ISTACK, 0, STACK
        ARGFRAME PSTACK, 0, STACK
        ARGFRAME XSTACK, 12, STACK
        ARGFRAME IOVERLAY, 0, STATIC
        ARGFRAME DOVERLAY, 0, STATIC
        FUNCALL SampleApp_ProcessEvent, osal_start_timerEx
        LOCFRAME ISTACK, 0, STACK
        LOCFRAME PSTACK, 0, STACK
        LOCFRAME XSTACK, 12, STACK
        LOCFRAME IOVERLAY, 0, STATIC
        LOCFRAME DOVERLAY, 0, STATIC
        ARGFRAME ISTACK, 0, STACK
        ARGFRAME PSTACK, 0, STACK
        ARGFRAME XSTACK, 12, STACK
        ARGFRAME IOVERLAY, 0, STATIC
        ARGFRAME DOVERLAY, 0, STATIC
        FUNCALL SampleApp_ProcessEvent, osal_msg_deallocate
        LOCFRAME ISTACK, 0, STACK
        LOCFRAME PSTACK, 0, STACK
        LOCFRAME XSTACK, 12, STACK
        LOCFRAME IOVERLAY, 0, STATIC
        LOCFRAME DOVERLAY, 0, STATIC
        ARGFRAME ISTACK, 0, STACK
        ARGFRAME PSTACK, 0, STACK
        ARGFRAME XSTACK, 12, STACK
        ARGFRAME IOVERLAY, 0, STATIC
        ARGFRAME DOVERLAY, 0, STATIC
        FUNCALL SampleApp_ProcessEvent, osal_msg_receive
        LOCFRAME ISTACK, 0, STACK
        LOCFRAME PSTACK, 0, STACK
        LOCFRAME XSTACK, 12, STACK
        LOCFRAME IOVERLAY, 0, STATIC
        LOCFRAME DOVERLAY, 0, STATIC
        ARGFRAME ISTACK, 0, STACK
        ARGFRAME PSTACK, 0, STACK
        ARGFRAME XSTACK, 12, STACK
        ARGFRAME IOVERLAY, 0, STATIC
        ARGFRAME DOVERLAY, 0, STATIC
        FUNCALL SampleApp_ProcessEvent, SampleApp_HandleKeys
        LOCFRAME ISTACK, 0, STACK
        LOCFRAME PSTACK, 0, STACK
        LOCFRAME XSTACK, 12, STACK
        LOCFRAME IOVERLAY, 0, STATIC
        LOCFRAME DOVERLAY, 0, STATIC
        ARGFRAME ISTACK, 0, STACK
        ARGFRAME PSTACK, 0, STACK
        ARGFRAME XSTACK, 12, STACK
        ARGFRAME IOVERLAY, 0, STATIC
        ARGFRAME DOVERLAY, 0, STATIC
        FUNCALL SampleApp_ProcessEvent, SampleApp_MessageMSGCB
        LOCFRAME ISTACK, 0, STACK
        LOCFRAME PSTACK, 0, STACK
        LOCFRAME XSTACK, 12, STACK
        LOCFRAME IOVERLAY, 0, STATIC
        LOCFRAME DOVERLAY, 0, STATIC
        ARGFRAME ISTACK, 0, STACK
        ARGFRAME PSTACK, 0, STACK
        ARGFRAME XSTACK, 12, STACK
        ARGFRAME IOVERLAY, 0, STATIC
        ARGFRAME DOVERLAY, 0, STATIC
        FUNCALL SampleApp_ProcessEvent, sendmsg_temp_humi
        LOCFRAME ISTACK, 0, STACK
        LOCFRAME PSTACK, 0, STACK
        LOCFRAME XSTACK, 12, STACK
        LOCFRAME IOVERLAY, 0, STATIC
        LOCFRAME DOVERLAY, 0, STATIC
        ARGFRAME ISTACK, 0, STACK
        ARGFRAME PSTACK, 0, STACK
        ARGFRAME XSTACK, 12, STACK
        ARGFRAME IOVERLAY, 0, STATIC
        ARGFRAME DOVERLAY, 0, STATIC
        FUNCALL SampleApp_ProcessEvent, osal_rand
        LOCFRAME ISTACK, 0, STACK
        LOCFRAME PSTACK, 0, STACK
        LOCFRAME XSTACK, 12, STACK
        LOCFRAME IOVERLAY, 0, STATIC
        LOCFRAME DOVERLAY, 0, STATIC
        ARGFRAME ISTACK, 0, STACK
        ARGFRAME PSTACK, 0, STACK
        ARGFRAME XSTACK, 12, STACK
        ARGFRAME IOVERLAY, 0, STATIC
        ARGFRAME DOVERLAY, 0, STATIC
        FUNCALL SampleApp_ProcessEvent, osal_start_timerEx
        LOCFRAME ISTACK, 0, STACK
        LOCFRAME PSTACK, 0, STACK
        LOCFRAME XSTACK, 12, STACK
        LOCFRAME IOVERLAY, 0, STATIC
        LOCFRAME DOVERLAY, 0, STATIC
        ARGFRAME ISTACK, 0, STACK
        ARGFRAME PSTACK, 0, STACK
        ARGFRAME XSTACK, 12, STACK
        ARGFRAME IOVERLAY, 0, STATIC
        ARGFRAME DOVERLAY, 0, STATIC
        MOV     A,#-0xc
        LCALL   ?BANKED_ENTER_XDATA
        CFI DPH0 load(1, XDATA, add(CFA_XSP16, literal(-1)))
        CFI DPL0 load(1, XDATA, add(CFA_XSP16, literal(-2)))
        CFI ?BRET_EXT load(1, XDATA, add(CFA_XSP16, literal(-3)))
        CFI ?RET_HIGH load(1, XDATA, add(CFA_XSP16, literal(-4)))
        CFI ?RET_LOW load(1, XDATA, add(CFA_XSP16, literal(-5)))
        CFI R7 load(1, XDATA, add(CFA_XSP16, literal(-6)))
        CFI V3 load(1, XDATA, add(CFA_XSP16, literal(-7)))
        CFI V2 load(1, XDATA, add(CFA_XSP16, literal(-8)))
        CFI V1 load(1, XDATA, add(CFA_XSP16, literal(-9)))
        CFI V0 load(1, XDATA, add(CFA_XSP16, literal(-10)))
        CFI VB load(1, XDATA, add(CFA_XSP16, literal(-11)))
        CFI R6 load(1, XDATA, add(CFA_XSP16, literal(-12)))
        CFI CFA_SP SP+0
        CFI CFA_XSP16 add(XSP16, 12)
        ; Saved register size: 12
        ; Auto size: 0
        MOV     A,R2
        MOV     R6,A
        MOV     A,R3
        MOV     R7,A
//  319   afIncomingMSGPacket_t *MSGpkt;
//  320   (void)task_id;  // Intentionally unreferenced parameter
//  321 
//  322   if ( events & SYS_EVENT_MSG )
        ANL     A,#0x80
        JZ      ??SampleApp_ProcessEvent_0
//  323   {
//  324     MSGpkt = (afIncomingMSGPacket_t *)osal_msg_receive( SampleApp_TaskID );
        ; Setup parameters for call to function osal_msg_receive
        SJMP    ??SampleApp_ProcessEvent_1
//  325     while ( MSGpkt )
//  326     {
//  327       switch ( MSGpkt->hdr.event )
//  328       {
//  329    //   case CMD_SERIAL_MSG:   //串口收到数据后由MT_UART层传递过来的数据
//  330           
//  331     //      SampleApp_SerialCMD((mtOSALSerialData_t *)MSGpkt);
//  332       //    break;
//  333         // Received when a key is pressed
//  334         case KEY_CHANGE:
//  335           SampleApp_HandleKeys( ((keyChange_t *)MSGpkt)->state, ((keyChange_t *)MSGpkt)->keys );
//  336           break;
//  337 
//  338         // Received when a messages is received (OTA) for this endpoint
//  339         case AF_INCOMING_MSG_CMD:
//  340           SampleApp_MessageMSGCB( MSGpkt );
//  341           break;
//  342 
//  343         // Received whenever the device changes state in the network
//  344         case ZDO_STATE_CHANGE:
//  345           SampleApp_NwkState = (devStates_t)(MSGpkt->hdr.status);
??SampleApp_ProcessEvent_2:
        INC     DPTR
        MOVX    A,@DPTR
        MOV     DPTR,#SampleApp_NwkState
        MOVX    @DPTR,A
//  346           if ( (SampleApp_NwkState == DEV_ZB_COORD)
//  347               || (SampleApp_NwkState == DEV_ROUTER)
//  348               || (SampleApp_NwkState == DEV_END_DEVICE) )
        XRL     A,#0x9
        JZ      ??SampleApp_ProcessEvent_3
        MOVX    A,@DPTR
        XRL     A,#0x7
        JZ      ??SampleApp_ProcessEvent_3
        MOVX    A,@DPTR
        XRL     A,#0x6
        JNZ     ??SampleApp_ProcessEvent_4
//  349           {
//  350             // Start sending the periodic message in a regular interval.
//  351             osal_start_timerEx( SampleApp_TaskID,
//  352                               SAMPLEAPP_SEND_PERIODIC_MSG_EVT,
//  353                               SAMPLEAPP_SEND_PERIODIC_MSG_TIMEOUT );
??SampleApp_ProcessEvent_3:
        ; Setup parameters for call to function osal_start_timerEx
        MOV     R4,#-0x18
        MOV     R5,#0x3
        MOV     R2,#0x1
        MOV     R3,#0x0
        MOV     DPTR,#SampleApp_TaskID
        MOVX    A,@DPTR
        MOV     R1,A
        LCALL   ??osal_start_timerEx?relay
//  354           }
//  355           else
//  356           {
//  357             // Device is no longer in the network
//  358           }
//  359           break;
//  360 
//  361         default:
//  362           break;
//  363       }
//  364 
//  365       // Release the memory
//  366       osal_msg_deallocate( (uint8 *)MSGpkt );
??SampleApp_ProcessEvent_4:
        ; Setup parameters for call to function osal_msg_deallocate
        MOV     R2,?V0 + 0
        MOV     R3,?V0 + 1
        LCALL   ??osal_msg_deallocate?relay
//  367 
//  368       // Next - if one is available
//  369       MSGpkt = (afIncomingMSGPacket_t *)osal_msg_receive( SampleApp_TaskID );
        ; Setup parameters for call to function osal_msg_receive
??SampleApp_ProcessEvent_1:
        MOV     DPTR,#SampleApp_TaskID
        MOVX    A,@DPTR
        MOV     R1,A
        LCALL   ??osal_msg_receive?relay
        MOV     ?V0 + 0,R2
        MOV     ?V0 + 1,R3
        MOV     A,?V0 + 0
        ORL     A,?V0 + 1
        JZ      ??SampleApp_ProcessEvent_5
        MOV     DPL,?V0 + 0
        MOV     DPH,?V0 + 1
        MOVX    A,@DPTR
        ADD     A,#-0x1a
        JZ      ??SampleApp_ProcessEvent_6
        ADD     A,#0x5a
        JZ      ??SampleApp_ProcessEvent_7
        ADD     A,#-0x11
        JZ      ??SampleApp_ProcessEvent_2
        SJMP    ??SampleApp_ProcessEvent_4
??SampleApp_ProcessEvent_7:
        ; Setup parameters for call to function SampleApp_HandleKeys
        INC     DPTR
        INC     DPTR
        INC     DPTR
        MOVX    A,@DPTR
        MOV     R2,A
        MOV     DPL,?V0 + 0
        MOV     DPH,?V0 + 1
        INC     DPTR
        INC     DPTR
        MOVX    A,@DPTR
        MOV     R1,A
        LCALL   ??SampleApp_HandleKeys?relay
        SJMP    ??SampleApp_ProcessEvent_4
??SampleApp_ProcessEvent_6:
        ; Setup parameters for call to function SampleApp_MessageMSGCB
        MOV     R2,?V0 + 0
        MOV     R3,?V0 + 1
        LCALL   ??SampleApp_MessageMSGCB?relay
        SJMP    ??SampleApp_ProcessEvent_4
//  370     }
//  371 
//  372     // return unprocessed events
//  373     return (events ^ SYS_EVENT_MSG);
??SampleApp_ProcessEvent_5:
        MOV     A,R6
        MOV     R2,A
        MOV     A,R7
        XRL     A,#0x80
??SampleApp_ProcessEvent_8:
        MOV     R3,A
        SJMP    ??SampleApp_ProcessEvent_9
//  374   }
//  375 
//  376   // Send a message out - This event is generated by a timer
//  377   //  (setup in SampleApp_Init()).
//  378   if ( events & SAMPLEAPP_SEND_PERIODIC_MSG_EVT )
??SampleApp_ProcessEvent_0:
        MOV     A,R6
        MOV     C,0xE0 /* A   */.0
        JNC     ??SampleApp_ProcessEvent_10
//  379   {
//  380     // Send the periodic message
//  381     SampleApp_SendPeriodicMessage();//周期性发送函数
        ; Setup parameters for call to function sendmsg_temp_humi
        LCALL   ??sendmsg_temp_humi?relay
//  382 
//  383     // Setup to send message again in normal period (+ a little jitter)
//  384     osal_start_timerEx( SampleApp_TaskID, SAMPLEAPP_SEND_PERIODIC_MSG_EVT,
//  385         (SAMPLEAPP_SEND_PERIODIC_MSG_TIMEOUT + (osal_rand() & 0x00FF)) );
        ; Setup parameters for call to function osal_rand
        LCALL   ??osal_rand?relay
        ; Setup parameters for call to function osal_start_timerEx
        MOV     A,R2
        ADD     A,#-0x18
        MOV     R4,A
        CLR     A
        ADDC    A,#0x3
        MOV     R5,A
        MOV     R2,#0x1
        MOV     R3,#0x0
        MOV     DPTR,#SampleApp_TaskID
        MOVX    A,@DPTR
        MOV     R1,A
        LCALL   ??osal_start_timerEx?relay
//  386 
//  387     // return unprocessed events
//  388     return (events ^ SAMPLEAPP_SEND_PERIODIC_MSG_EVT);
        MOV     A,R6
        XRL     A,#0x1
        MOV     R2,A
        MOV     A,R7
        SJMP    ??SampleApp_ProcessEvent_8
//  389   }
//  390 
//  391   // Discard unknown events
//  392   return 0;
??SampleApp_ProcessEvent_10:
        MOV     R2,#0x0
        MOV     R3,#0x0
??SampleApp_ProcessEvent_9:
        MOV     R7,#0x4
        LJMP    ?BANKED_LEAVE_XDATA
        CFI EndBlock cfiBlock27
//  393 }
//  394 
//  395 /*********************************************************************
//  396  * Event Generation Functions
//  397  */
//  398 /*********************************************************************
//  399  * @fn      SampleApp_HandleKeys
//  400  *
//  401  * @brief   Handles all key events for this device.
//  402  *
//  403  * @param   shift - true if in shift/alt.
//  404  * @param   keys - bit field for key events. Valid entries:
//  405  *                 HAL_KEY_SW_2
//  406  *                 HAL_KEY_SW_1
//  407  *
//  408  * @return  none
//  409  */

        RSEG BANKED_CODE:CODE:NOROOT(0)
//  410 void SampleApp_HandleKeys( uint8 shift, uint8 keys )
SampleApp_HandleKeys:
        CFI Block cfiBlock28 Using cfiCommon0
        CFI Function SampleApp_HandleKeys
        CODE
//  411 {
        FUNCALL SampleApp_HandleKeys, SampleApp_SendFlashMessage
        LOCFRAME ISTACK, 0, STACK
        LOCFRAME PSTACK, 0, STACK
        LOCFRAME XSTACK, 10, STACK
        LOCFRAME IOVERLAY, 0, STATIC
        LOCFRAME DOVERLAY, 0, STATIC
        ARGFRAME ISTACK, 0, STACK
        ARGFRAME PSTACK, 0, STACK
        ARGFRAME XSTACK, 10, STACK
        ARGFRAME IOVERLAY, 0, STATIC
        ARGFRAME DOVERLAY, 0, STATIC
        FUNCALL SampleApp_HandleKeys, aps_FindGroup
        LOCFRAME ISTACK, 0, STACK
        LOCFRAME PSTACK, 0, STACK
        LOCFRAME XSTACK, 10, STACK
        LOCFRAME IOVERLAY, 0, STATIC
        LOCFRAME DOVERLAY, 0, STATIC
        ARGFRAME ISTACK, 0, STACK
        ARGFRAME PSTACK, 0, STACK
        ARGFRAME XSTACK, 10, STACK
        ARGFRAME IOVERLAY, 0, STATIC
        ARGFRAME DOVERLAY, 0, STATIC
        FUNCALL SampleApp_HandleKeys, aps_RemoveGroup
        LOCFRAME ISTACK, 0, STACK
        LOCFRAME PSTACK, 0, STACK
        LOCFRAME XSTACK, 10, STACK
        LOCFRAME IOVERLAY, 0, STATIC
        LOCFRAME DOVERLAY, 0, STATIC
        ARGFRAME ISTACK, 0, STACK
        ARGFRAME PSTACK, 0, STACK
        ARGFRAME XSTACK, 10, STACK
        ARGFRAME IOVERLAY, 0, STATIC
        ARGFRAME DOVERLAY, 0, STATIC
        FUNCALL SampleApp_HandleKeys, aps_AddGroup
        LOCFRAME ISTACK, 0, STACK
        LOCFRAME PSTACK, 0, STACK
        LOCFRAME XSTACK, 10, STACK
        LOCFRAME IOVERLAY, 0, STATIC
        LOCFRAME DOVERLAY, 0, STATIC
        ARGFRAME ISTACK, 0, STACK
        ARGFRAME PSTACK, 0, STACK
        ARGFRAME XSTACK, 10, STACK
        ARGFRAME IOVERLAY, 0, STATIC
        ARGFRAME DOVERLAY, 0, STATIC
        MOV     A,#-0xa
        LCALL   ?BANKED_ENTER_XDATA
        CFI DPH0 load(1, XDATA, add(CFA_XSP16, literal(-1)))
        CFI DPL0 load(1, XDATA, add(CFA_XSP16, literal(-2)))
        CFI ?BRET_EXT load(1, XDATA, add(CFA_XSP16, literal(-3)))
        CFI ?RET_HIGH load(1, XDATA, add(CFA_XSP16, literal(-4)))
        CFI ?RET_LOW load(1, XDATA, add(CFA_XSP16, literal(-5)))
        CFI R7 load(1, XDATA, add(CFA_XSP16, literal(-6)))
        CFI V1 load(1, XDATA, add(CFA_XSP16, literal(-7)))
        CFI V0 load(1, XDATA, add(CFA_XSP16, literal(-8)))
        CFI VB load(1, XDATA, add(CFA_XSP16, literal(-9)))
        CFI R6 load(1, XDATA, add(CFA_XSP16, literal(-10)))
        CFI CFA_SP SP+0
        CFI CFA_XSP16 add(XSP16, 10)
        ; Saved register size: 10
        ; Auto size: 0
        MOV     A,R2
        MOV     R6,A
//  412   (void)shift;  // Intentionally unreferenced parameter
//  413   
//  414   if ( keys & HAL_KEY_SW_1 )
        MOV     C,0xE0 /* A   */.0
        JNC     ??SampleApp_HandleKeys_0
//  415   {
//  416     /* This key sends the Flash Command is sent to Group 1.
//  417      * This device will not receive the Flash Command from this
//  418      * device (even if it belongs to group 1).
//  419      */
//  420     SampleApp_SendFlashMessage( SAMPLEAPP_FLASH_DURATION );
        ; Setup parameters for call to function SampleApp_SendFlashMessage
        MOV     R2,#-0x18
        MOV     R3,#0x3
        LCALL   ??SampleApp_SendFlashMessage?relay
//  421   }
//  422 
//  423   if ( keys & HAL_KEY_SW_2 )
??SampleApp_HandleKeys_0:
        MOV     A,R6
        MOV     C,0xE0 /* A   */.1
        JNC     ??SampleApp_HandleKeys_1
//  424   {
//  425     /* The Flashr Command is sent to Group 1.
//  426      * This key toggles this device in and out of group 1.
//  427      * If this device doesn't belong to group 1, this application
//  428      * will not receive the Flash command sent to group 1.
//  429      */
//  430     aps_Group_t *grp;
//  431     grp = aps_FindGroup( SAMPLEAPP_ENDPOINT, SAMPLEAPP_FLASH_GROUP );
//  432     if ( grp )
        ; Setup parameters for call to function aps_FindGroup
        MOV     R2,#0x1
        MOV     R3,#0x0
        MOV     R1,#0x14
        LCALL   ??aps_FindGroup?relay
        MOV     ?V0 + 1,R3
        MOV     A,R2
        ORL     A,?V0 + 1
        JZ      ??SampleApp_HandleKeys_2
//  433     {
//  434       // Remove from the group
//  435       aps_RemoveGroup( SAMPLEAPP_ENDPOINT, SAMPLEAPP_FLASH_GROUP );
        ; Setup parameters for call to function aps_RemoveGroup
        MOV     R2,#0x1
        MOV     R3,#0x0
        MOV     R1,#0x14
        LCALL   ??aps_RemoveGroup?relay
        SJMP    ??SampleApp_HandleKeys_1
//  436     }
//  437     else
//  438     {
//  439       // Add to the flash group
//  440       aps_AddGroup( SAMPLEAPP_ENDPOINT, &SampleApp_Group );
??SampleApp_HandleKeys_2:
        ; Setup parameters for call to function aps_AddGroup
        MOV     R2,#SampleApp_Group & 0xff
        MOV     R3,#(SampleApp_Group >> 8) & 0xff
        MOV     R1,#0x14
        LCALL   ??aps_AddGroup?relay
//  441     }
//  442   }
//  443 }
??SampleApp_HandleKeys_1:
        SJMP    ??Subroutine7_0
        CFI EndBlock cfiBlock28
//  444 
//  445 /*********************************************************************
//  446  * LOCAL FUNCTIONS
//  447  */
//  448 
//  449 /*********************************************************************
//  450  * @fn      SampleApp_SendFlashMessage
//  451  *
//  452  * @brief   Send the flash message to group 1.
//  453  *
//  454  * @param   flashTime - in milliseconds
//  455  *
//  456  * @return  none
//  457  */

        RSEG BANKED_CODE:CODE:NOROOT(0)
//  458 void SampleApp_SendFlashMessage( uint16 flashTime )
SampleApp_SendFlashMessage:
        CFI Block cfiBlock29 Using cfiCommon0
        CFI Function SampleApp_SendFlashMessage
        CODE
//  459 {
        FUNCALL SampleApp_SendFlashMessage, AF_DataRequest
        LOCFRAME ISTACK, 0, STACK
        LOCFRAME PSTACK, 0, STACK
        LOCFRAME XSTACK, 22, STACK
        LOCFRAME IOVERLAY, 0, STATIC
        LOCFRAME DOVERLAY, 0, STATIC
        ARGFRAME ISTACK, 0, STACK
        ARGFRAME PSTACK, 0, STACK
        ARGFRAME XSTACK, 22, STACK
        ARGFRAME IOVERLAY, 0, STATIC
        ARGFRAME DOVERLAY, 0, STATIC
        MOV     A,#-0xa
        LCALL   ?BANKED_ENTER_XDATA
        CFI DPH0 load(1, XDATA, add(CFA_XSP16, literal(-1)))
        CFI DPL0 load(1, XDATA, add(CFA_XSP16, literal(-2)))
        CFI ?BRET_EXT load(1, XDATA, add(CFA_XSP16, literal(-3)))
        CFI ?RET_HIGH load(1, XDATA, add(CFA_XSP16, literal(-4)))
        CFI ?RET_LOW load(1, XDATA, add(CFA_XSP16, literal(-5)))
        CFI R7 load(1, XDATA, add(CFA_XSP16, literal(-6)))
        CFI V1 load(1, XDATA, add(CFA_XSP16, literal(-7)))
        CFI V0 load(1, XDATA, add(CFA_XSP16, literal(-8)))
        CFI VB load(1, XDATA, add(CFA_XSP16, literal(-9)))
        CFI R6 load(1, XDATA, add(CFA_XSP16, literal(-10)))
        CFI CFA_SP SP+0
        CFI CFA_XSP16 add(XSP16, 10)
        ; Saved register size: 10
        ; Auto size: 3
        MOV     A,#-0x3
        LCALL   ?ALLOC_XSTACK8
        CFI CFA_XSP16 add(XSP16, 13)
//  460   uint8 buffer[3];
//  461   buffer[0] = (uint8)(SampleAppFlashCounter++);
        MOV     DPTR,#SampleAppFlashCounter
        MOVX    A,@DPTR
        MOV     DPL,?XSP + 0
        MOV     DPH,?XSP + 1
        MOVX    @DPTR,A
        MOV     DPTR,#SampleAppFlashCounter
        MOVX    A,@DPTR
        INC     A
        MOVX    @DPTR,A
//  462   buffer[1] = LO_UINT16( flashTime );
        MOV     A,#0x1
        LCALL   ?XSTACK_DISP0_8
        MOV     A,R2
        MOVX    @DPTR,A
//  463   buffer[2] = HI_UINT16( flashTime );
        MOV     A,#0x2
        LCALL   ?XSTACK_DISP0_8
        MOV     A,R3
        LCALL   ??Subroutine5_0 & 0xFFFF
//  464 
//  465   if ( AF_DataRequest( &SampleApp_Flash_DstAddr, &SampleApp_epDesc,
//  466                        SAMPLEAPP_FLASH_CLUSTERID,
//  467                        3,
//  468                        buffer,
//  469                        &SampleApp_TransID,
//  470                        AF_DISCV_ROUTE,
//  471                        AF_DEFAULT_RADIUS ) == afStatus_SUCCESS )
??CrossCallReturnLabel_10:
        LCALL   ?PUSH_XSTACK_I_ONE
        CFI CFA_XSP16 add(XSP16, 14)
        MOV     ?V0 + 0,#SampleApp_TransID & 0xff
        MOV     ?V0 + 1,#(SampleApp_TransID >> 8) & 0xff
        MOV     R0,#?V0 + 0
        LCALL   ?PUSH_XSTACK_I_TWO
        CFI CFA_XSP16 add(XSP16, 16)
        MOV     A,#0x3
        LCALL   ?XSTACK_DISP0_8
        MOV     ?V0 + 0,DPL
        MOV     ?V0 + 1,DPH
        MOV     R0,#?V0 + 0
        LCALL   ?PUSH_XSTACK_I_TWO
        CFI CFA_XSP16 add(XSP16, 18)
        MOV     ?V0 + 0,#0x3
        MOV     ?V0 + 1,#0x0
        MOV     R0,#?V0 + 0
        LCALL   ?PUSH_XSTACK_I_TWO
        CFI CFA_XSP16 add(XSP16, 20)
        MOV     ?V0 + 0,#0x2
        MOV     R0,#?V0 + 0
        LCALL   ?PUSH_XSTACK_I_TWO
        CFI CFA_XSP16 add(XSP16, 22)
        MOV     R1,#0x20
        MOV     R4,#SampleApp_epDesc & 0xff
        MOV     R5,#(SampleApp_epDesc >> 8) & 0xff
        MOV     R2,#SampleApp_Flash_DstAddr & 0xff
        MOV     R3,#(SampleApp_Flash_DstAddr >> 8) & 0xff
        LCALL   ??Subroutine4_0 & 0xFFFF
??CrossCallReturnLabel_6:
        LCALL   ?DEALLOC_XSTACK8
        CFI CFA_XSP16 add(XSP16, 13)
//  472   {
//  473   }
//  474   else
//  475   {
//  476     // Error occurred in request to send.
//  477   }
//  478 }
        MOV     A,#0x3
        SJMP    ??Subroutine6_0
        CFI EndBlock cfiBlock29

        RSEG BANKED_CODE:CODE:NOROOT(0)
?Subroutine0:
        CFI Block cfiBlock30 Using cfiCommon0
        CFI NoFunction
        CFI CFA_SP SP+0
        CFI CFA_XSP16 add(XSP16, 42)
        CFI VB load(1, XDATA, add(CFA_XSP16, literal(-9)))
        CFI DPL0 load(1, XDATA, add(CFA_XSP16, literal(-2)))
        CFI DPH0 load(1, XDATA, add(CFA_XSP16, literal(-1)))
        CFI R6 load(1, XDATA, add(CFA_XSP16, literal(-10)))
        CFI R7 load(1, XDATA, add(CFA_XSP16, literal(-6)))
        CFI V0 load(1, XDATA, add(CFA_XSP16, literal(-8)))
        CFI V1 load(1, XDATA, add(CFA_XSP16, literal(-7)))
        CFI ?BRET_EXT load(1, XDATA, add(CFA_XSP16, literal(-3)))
        CFI ?RET_HIGH load(1, XDATA, add(CFA_XSP16, literal(-4)))
        CFI ?RET_LOW load(1, XDATA, add(CFA_XSP16, literal(-5)))
        MOV     A,#0x20
        CFI EndBlock cfiBlock30
        REQUIRE ??Subroutine6_0
        ; // Fall through to label ??Subroutine6_0

        RSEG BANKED_CODE:CODE:NOROOT(0)
??Subroutine6_0:
        CFI Block cfiBlock31 Using cfiCommon0
        CFI NoFunction
        CFI CFA_SP SP+0
        CFI CFA_XSP16 add(XSP16, 13)
        CFI VB load(1, XDATA, add(CFA_XSP16, literal(-9)))
        CFI DPL0 load(1, XDATA, add(CFA_XSP16, literal(-2)))
        CFI DPH0 load(1, XDATA, add(CFA_XSP16, literal(-1)))
        CFI R6 load(1, XDATA, add(CFA_XSP16, literal(-10)))
        CFI R7 load(1, XDATA, add(CFA_XSP16, literal(-6)))
        CFI V0 load(1, XDATA, add(CFA_XSP16, literal(-8)))
        CFI V1 load(1, XDATA, add(CFA_XSP16, literal(-7)))
        CFI ?BRET_EXT load(1, XDATA, add(CFA_XSP16, literal(-3)))
        CFI ?RET_HIGH load(1, XDATA, add(CFA_XSP16, literal(-4)))
        CFI ?RET_LOW load(1, XDATA, add(CFA_XSP16, literal(-5)))
        CFI Invalid
        LCALL   ?DEALLOC_XSTACK8
        CFI EndBlock cfiBlock31
        REQUIRE ??Subroutine7_0
        ; // Fall through to label ??Subroutine7_0

        RSEG BANKED_CODE:CODE:NOROOT(0)
??Subroutine7_0:
        CFI Block cfiBlock32 Using cfiCommon0
        CFI NoFunction
        CFI CFA_SP SP+0
        CFI CFA_XSP16 add(XSP16, 10)
        CFI VB load(1, XDATA, add(CFA_XSP16, literal(-9)))
        CFI DPL0 load(1, XDATA, add(CFA_XSP16, literal(-2)))
        CFI DPH0 load(1, XDATA, add(CFA_XSP16, literal(-1)))
        CFI R6 load(1, XDATA, add(CFA_XSP16, literal(-10)))
        CFI R7 load(1, XDATA, add(CFA_XSP16, literal(-6)))
        CFI V0 load(1, XDATA, add(CFA_XSP16, literal(-8)))
        CFI V1 load(1, XDATA, add(CFA_XSP16, literal(-7)))
        CFI ?BRET_EXT load(1, XDATA, add(CFA_XSP16, literal(-3)))
        CFI ?RET_HIGH load(1, XDATA, add(CFA_XSP16, literal(-4)))
        CFI ?RET_LOW load(1, XDATA, add(CFA_XSP16, literal(-5)))
        MOV     R7,#0x2
        LJMP    ?BANKED_LEAVE_XDATA
        CFI EndBlock cfiBlock32

        RSEG BANK_RELAYS:CODE:REORDER:NOROOT(0)
??SampleApp_SendPeriodicMessage?relay:
        LCALL   ?BDISPATCH
        DATA
        DC24    SampleApp_SendPeriodicMessage

        RSEG BANK_RELAYS:CODE:REORDER:NOROOT(0)
??sendmsg_temp?relay:
        LCALL   ?BDISPATCH
        DATA
        DC24    sendmsg_temp

        RSEG BANK_RELAYS:CODE:REORDER:NOROOT(0)
??sendmsg_temp_humi?relay:
        LCALL   ?BDISPATCH
        DATA
        DC24    sendmsg_temp_humi

        RSEG BANK_RELAYS:CODE:REORDER:NOROOT(0)
??SampleApp_MessageMSGCB?relay:
        LCALL   ?BDISPATCH
        DATA
        DC24    SampleApp_MessageMSGCB

        RSEG BANK_RELAYS:CODE:REORDER:NOROOT(0)
??SampleApp_Init?relay:
        LCALL   ?BDISPATCH
        DATA
        DC24    SampleApp_Init

        RSEG BANK_RELAYS:CODE:REORDER:NOROOT(0)
??SampleApp_ProcessEvent?relay:
        LCALL   ?BDISPATCH
        DATA
        DC24    SampleApp_ProcessEvent

        RSEG BANK_RELAYS:CODE:REORDER:NOROOT(0)
??SampleApp_HandleKeys?relay:
        LCALL   ?BDISPATCH
        DATA
        DC24    SampleApp_HandleKeys

        RSEG BANK_RELAYS:CODE:REORDER:NOROOT(0)
??SampleApp_SendFlashMessage?relay:
        LCALL   ?BDISPATCH
        DATA
        DC24    SampleApp_SendFlashMessage

        RSEG XDATA_ROM_C:CONST:REORDER:NOROOT(0)
        DATA8
`?<Constant "temp success\\n">`:
        DB "temp success\012"

        RSEG XDATA_ROM_C:CONST:REORDER:NOROOT(0)
        DATA8
`?<Constant "humi success\\n">`:
        DB "humi success\012"

        RSEG XDATA_ROM_C:CONST:REORDER:NOROOT(0)
        DATA8
`?<Constant "Hello IGreen\\n">`:
        DB "Hello IGreen\012"

        RSEG XDATA_ROM_C:CONST:REORDER:NOROOT(0)
        DATA8
`?<Constant "Group 1">`:
        DB "Group 1"

        RSEG XDATA_ROM_C:CONST:REORDER:NOROOT(0)
        DATA8
`?<Constant "SampleApp">`:
        DB "SampleApp"

        END
// 
// 1 267 bytes in segment BANKED_CODE
//    48 bytes in segment BANK_RELAYS
//     1 byte  in segment SFR_AN
//    76 bytes in segment XDATA_ROM_C
//    53 bytes in segment XDATA_Z
// 
// 1 315 bytes of CODE  memory
//    76 bytes of CONST memory
//     0 bytes of DATA  memory (+ 1 byte shared)
//    53 bytes of XDATA memory
//
//Errors: none
//Warnings: 1
